(idataClasses
IndicatorData
p0
(dp1
S'source'
p2
S'eurostat'
p3
sS'indicator'
p4
S'Gini coefficient'
p5
sS'data'
p6
(dp7
S'Turkey'
p8
(dp9
S'2002'
p10
F46.0
sS'2003'
p11
F45.0
sS'2006'
p12
F44.799999999999997
ssS'New Member States (10 countries)'
p13
(dp14
S'2002'
p15
F29.0
ssS'Czech Republic'
p16
(dp17
S'2006'
p18
F25.300000000000001
sS'2007'
p19
F25.300000000000001
sS'2005'
p20
F26.0
sS'2008'
p21
F24.699999999999999
sS'2009'
p22
F25.100000000000001
sS'2011'
p23
F25.199999999999999
sS'2010'
p24
F24.899999999999999
ssS'New Member States (12 countries)'
p25
(dp26
S'2006'
p27
F33.0
sS'2007'
p28
F31.800000000000001
sS'2004'
p29
F37.399999999999999
sS'2005'
p30
F33.200000000000003
sS'2008'
p31
F31.300000000000001
sS'2009'
p32
F30.699999999999999
sS'2010'
p33
F30.300000000000001
ssS'Lithuania'
p34
(dp35
S'2006'
p36
F35.0
sS'2007'
p37
F33.799999999999997
sS'2005'
p38
F36.299999999999997
sS'2008'
p39
F34.0
sS'2009'
p40
F35.5
sS'2011'
p41
F32.899999999999999
sS'2010'
p42
F36.899999999999999
ssS'Luxembourg'
p43
(dp44
S'2003'
p45
F27.600000000000001
sS'2006'
p46
F27.800000000000001
sS'2007'
p47
F27.399999999999999
sS'2004'
p48
F26.5
sS'2005'
p49
F26.5
sS'2008'
p50
F27.699999999999999
sS'2009'
p51
F29.199999999999999
sS'2011'
p52
F27.199999999999999
sS'2010'
p53
F27.899999999999999
ssS'France'
p54
(dp55
S'2002'
p56
F27.0
sS'2003'
p57
F27.0
sS'2006'
p58
F27.300000000000001
sS'2007'
p59
F26.600000000000001
sS'2004'
p60
F28.199999999999999
sS'2005'
p61
F27.699999999999999
sS'2008'
p62
F29.800000000000001
sS'2009'
p63
F29.899999999999999
sS'2010'
p64
F29.800000000000001
ssS'Slovakia'
p65
(dp66
S'2006'
p67
F28.100000000000001
sS'2007'
p68
F24.5
sS'2005'
p69
F26.199999999999999
sS'2008'
p70
F23.699999999999999
sS'2009'
p71
F24.800000000000001
sS'2010'
p72
F25.899999999999999
ssS'Ireland'
p73
(dp74
S'2003'
p75
F30.600000000000001
sS'2006'
p76
F31.899999999999999
sS'2007'
p77
F31.300000000000001
sS'2004'
p78
F31.5
sS'2005'
p79
F31.899999999999999
sS'2008'
p80
F29.899999999999999
sS'2009'
p81
F28.800000000000001
sS'2010'
p82
F33.200000000000003
ssS'Italy'
p83
(dp84
S'2006'
p85
F32.100000000000001
sS'2007'
p86
F32.200000000000003
sS'2004'
p87
F33.200000000000003
sS'2005'
p88
F32.799999999999997
sS'2008'
p89
F31.0
sS'2009'
p90
F31.5
sS'2010'
p91
F31.199999999999999
ssS'Norway'
p92
(dp93
S'2003'
p94
F26.600000000000001
sS'2006'
p95
F31.100000000000001
sS'2007'
p96
F23.699999999999999
sS'2004'
p97
F25.199999999999999
sS'2005'
p98
F28.199999999999999
sS'2008'
p99
F25.100000000000001
sS'2009'
p100
F24.100000000000001
sS'2011'
p101
F22.899999999999999
sS'2010'
p102
F23.600000000000001
ssS'Iceland'
p103
(dp104
S'2006'
p105
F26.300000000000001
sS'2007'
p106
F28.0
sS'2004'
p107
F24.100000000000001
sS'2005'
p108
F25.100000000000001
sS'2008'
p109
F27.300000000000001
sS'2009'
p110
F29.600000000000001
sS'2011'
p111
F23.600000000000001
sS'2010'
p112
F25.699999999999999
ssS'Euro area (17 countries)'
p113
(dp114
S'2006'
p115
F29.100000000000001
sS'2007'
p116
F29.899999999999999
sS'2005'
p117
F29.199999999999999
sS'2008'
p118
F30.199999999999999
sS'2009'
p119
F30.100000000000001
sS'2010'
p120
F30.199999999999999
ssS'European Union (15 countries)'
p121
(dp122
S'2003'
p123
F30.0
sS'2006'
p124
F29.5
sS'2007'
p125
F30.199999999999999
sS'2004'
p126
F30.0
sS'2005'
p127
F29.899999999999999
sS'2008'
p128
F30.699999999999999
sS'2009'
p129
F30.399999999999999
sS'2010'
p130
F30.5
ssS'Slovenia'
p131
(dp132
S'2002'
p133
F22.0
sS'2003'
p134
F22.0
sS'2006'
p135
F23.699999999999999
sS'2007'
p136
F23.199999999999999
sS'2005'
p137
F23.800000000000001
sS'2008'
p138
F23.399999999999999
sS'2009'
p139
F22.699999999999999
sS'2011'
p140
F23.800000000000001
sS'2010'
p141
F23.800000000000001
ssS'Euro area (16 countries)'
p142
(dp143
S'2006'
p144
F29.100000000000001
sS'2007'
p145
F29.899999999999999
sS'2005'
p146
F29.199999999999999
sS'2008'
p147
F30.199999999999999
sS'2009'
p148
F30.0
sS'2010'
p149
F30.199999999999999
ssS'Belgium'
p150
(dp151
S'2003'
p152
F28.300000000000001
sS'2006'
p153
F27.800000000000001
sS'2007'
p154
F26.300000000000001
sS'2004'
p155
F26.100000000000001
sS'2005'
p156
F28.0
sS'2008'
p157
F27.5
sS'2009'
p158
F26.399999999999999
sS'2011'
p159
F26.300000000000001
sS'2010'
p160
F26.600000000000001
ssS'Spain'
p161
(dp162
S'2002'
p163
F31.0
sS'2003'
p164
F31.0
sS'2006'
p165
F31.199999999999999
sS'2007'
p166
F31.300000000000001
sS'2004'
p167
F30.699999999999999
sS'2005'
p168
F31.800000000000001
sS'2008'
p169
F31.300000000000001
sS'2009'
p170
F32.299999999999997
sS'2011'
p171
F34.0
sS'2010'
p172
F33.899999999999999
ssS'Netherlands'
p173
(dp174
S'2002'
p175
F27.0
sS'2003'
p176
F27.0
sS'2006'
p177
F26.399999999999999
sS'2007'
p178
F27.600000000000001
sS'2005'
p179
F26.899999999999999
sS'2008'
p180
F27.600000000000001
sS'2009'
p181
F27.199999999999999
sS'2011'
p182
F25.800000000000001
sS'2010'
p183
F25.5
ssS'Denmark'
p184
(dp185
S'2003'
p186
F24.800000000000001
sS'2006'
p187
F23.699999999999999
sS'2007'
p188
F25.199999999999999
sS'2004'
p189
F23.899999999999999
sS'2005'
p190
F23.899999999999999
sS'2008'
p191
F25.100000000000001
sS'2009'
p192
F26.899999999999999
sS'2011'
p193
F27.800000000000001
sS'2010'
p194
F26.899999999999999
ssS'Poland'
p195
(dp196
S'2006'
p197
F33.299999999999997
sS'2007'
p198
F32.200000000000003
sS'2005'
p199
F35.600000000000001
sS'2008'
p200
F32.0
sS'2009'
p201
F31.399999999999999
sS'2011'
p202
F31.100000000000001
sS'2010'
p203
F31.100000000000001
ssS'Finland'
p204
(dp205
S'2002'
p206
F26.0
sS'2003'
p207
F26.0
sS'2006'
p208
F25.899999999999999
sS'2007'
p209
F26.199999999999999
sS'2004'
p210
F25.5
sS'2005'
p211
F26.0
sS'2008'
p212
F26.300000000000001
sS'2009'
p213
F25.899999999999999
sS'2011'
p214
F25.800000000000001
sS'2010'
p215
F25.399999999999999
ssS'Sweden'
p216
(dp217
S'2002'
p218
F23.0
sS'2006'
p219
F24.0
sS'2007'
p220
F23.399999999999999
sS'2004'
p221
F23.0
sS'2005'
p222
F23.399999999999999
sS'2008'
p223
F24.0
sS'2009'
p224
F24.800000000000001
sS'2011'
p225
F24.399999999999999
sS'2010'
p226
F24.100000000000001
ssS'Latvia'
p227
(dp228
S'2006'
p229
F39.200000000000003
sS'2007'
p230
F35.399999999999999
sS'2005'
p231
F36.100000000000001
sS'2008'
p232
F37.700000000000003
sS'2009'
p233
F37.399999999999999
sS'2011'
p234
F35.200000000000003
sS'2010'
p235
F36.100000000000001
ssS'Croatia'
p236
(dp237
S'2003'
p238
F29.0
sS'2006'
p239
F28.0
sS'2007'
p240
F29.0
sS'2004'
p241
F30.0
sS'2005'
p242
F30.0
sS'2008'
p243
F28.0
sS'2009'
p244
F27.0
sS'2010'
p245
F31.5
ssS'Malta'
p246
(dp247
S'2006'
p248
F27.0
sS'2007'
p249
F26.300000000000001
sS'2005'
p250
F26.899999999999999
sS'2008'
p251
F27.899999999999999
sS'2009'
p252
F27.199999999999999
sS'2011'
p253
F27.399999999999999
sS'2010'
p254
F28.399999999999999
ssS'European Union (27 countries)'
p255
(dp256
S'2006'
p257
F30.199999999999999
sS'2007'
p258
F30.600000000000001
sS'2005'
p259
F30.600000000000001
sS'2008'
p260
F30.800000000000001
sS'2009'
p261
F30.399999999999999
sS'2010'
p262
F30.5
ssS'Switzerland'
p263
(dp264
S'2008'
p265
F32.0
sS'2009'
p266
F30.199999999999999
sS'2010'
p267
F29.600000000000001
ssS'Bulgaria'
p268
(dp269
S'2002'
p270
F26.0
sS'2003'
p271
F24.0
sS'2006'
p272
F31.199999999999999
sS'2007'
p273
F35.299999999999997
sS'2004'
p274
F26.0
sS'2005'
p275
F25.0
sS'2008'
p276
F35.899999999999999
sS'2009'
p277
F33.399999999999999
sS'2010'
p278
F33.200000000000003
ssS'Romania'
p279
(dp280
S'2002'
p281
F30.0
sS'2003'
p282
F30.0
sS'2006'
p283
F33.0
sS'2007'
p284
F37.799999999999997
sS'2004'
p285
F31.0
sS'2005'
p286
F31.0
sS'2008'
p287
F36.0
sS'2009'
p288
F34.899999999999999
sS'2011'
p289
F33.200000000000003
sS'2010'
p290
F33.299999999999997
ssS'Portugal'
p291
(dp292
S'2006'
p293
F37.700000000000003
sS'2007'
p294
F36.799999999999997
sS'2004'
p295
F37.799999999999997
sS'2005'
p296
F38.100000000000001
sS'2008'
p297
F35.799999999999997
sS'2009'
p298
F35.399999999999999
sS'2011'
p299
F34.200000000000003
sS'2010'
p300
F33.700000000000003
ssS'Estonia'
p301
(dp302
S'2002'
p303
F35.0
sS'2003'
p304
F34.0
sS'2006'
p305
F33.100000000000001
sS'2007'
p306
F33.399999999999999
sS'2004'
p307
F37.399999999999999
sS'2005'
p308
F34.100000000000001
sS'2008'
p309
F30.899999999999999
sS'2009'
p310
F31.399999999999999
sS'2011'
p311
F31.899999999999999
sS'2010'
p312
F31.300000000000001
ssS'Germany (including  former GDR from 1991)'
p313
(dp314
S'2006'
p315
F26.800000000000001
sS'2007'
p316
F30.399999999999999
sS'2005'
p317
F26.100000000000001
sS'2008'
p318
F30.199999999999999
sS'2009'
p319
F29.100000000000001
sS'2011'
p320
F29.0
sS'2010'
p321
F29.300000000000001
ssS'Euro area (EA11-2000, EA12-2006, EA13-2007, EA15-2008, EA16-2010, EA17)'
p322
(dp323
S'2006'
p324
F29.199999999999999
sS'2007'
p325
F30.0
sS'2005'
p326
F29.300000000000001
sS'2008'
p327
F30.300000000000001
sS'2009'
p328
F30.0
sS'2010'
p329
F30.199999999999999
ssS'United Kingdom'
p330
(dp331
S'2002'
p332
F35.0
sS'2003'
p333
F34.0
sS'2006'
p334
F32.5
sS'2007'
p335
F32.600000000000001
sS'2005'
p336
F34.600000000000001
sS'2008'
p337
F33.899999999999999
sS'2009'
p338
F32.399999999999999
sS'2010'
p339
F33.0
ssS'Austria'
p340
(dp341
S'2003'
p342
F27.399999999999999
sS'2006'
p343
F25.300000000000001
sS'2007'
p344
F26.199999999999999
sS'2004'
p345
F25.800000000000001
sS'2005'
p346
F26.199999999999999
sS'2008'
p347
F26.199999999999999
sS'2009'
p348
F25.699999999999999
sS'2011'
p349
F26.300000000000001
sS'2010'
p350
F26.100000000000001
ssS'European Union (25 countries)'
p351
(dp352
sS'Greece'
p353
(dp354
S'2003'
p355
F34.700000000000003
sS'2006'
p356
F34.299999999999997
sS'2007'
p357
F34.299999999999997
sS'2004'
p358
F33.0
sS'2005'
p359
F33.200000000000003
sS'2008'
p360
F33.399999999999999
sS'2009'
p361
F33.100000000000001
sS'2010'
p362
F32.899999999999999
ssS'Hungary'
p363
(dp364
S'2002'
p365
F24.0
sS'2003'
p366
F27.0
sS'2006'
p367
F33.299999999999997
sS'2007'
p368
F25.600000000000001
sS'2005'
p369
F27.600000000000001
sS'2008'
p370
F25.199999999999999
sS'2009'
p371
F24.699999999999999
sS'2011'
p372
F26.899999999999999
sS'2010'
p373
F24.100000000000001
ssS'Cyprus'
p374
(dp375
S'2003'
p376
F27.0
sS'2006'
p377
F28.800000000000001
sS'2007'
p378
F29.800000000000001
sS'2005'
p379
F28.699999999999999
sS'2008'
p380
F28.300000000000001
sS'2009'
p381
F29.100000000000001
sS'2010'
p382
F29.100000000000001
sssS'description'
p383
S'DATASET: Gini coefficient (Source: SILC) [ilc_di12]'
p384
sb.