(idataClasses
IndicatorData
p0
(dp1
S'source'
p2
S'eurostat'
p3
sS'indicator'
p4
(lp5
S'Second quartile'
p6
aS'Top cut-off point'
p7
aS'Euro (from 1.1.1999)/ECU (up to 31.12.1998)'
p8
asS'data'
p9
(dp10
S'Turkey'
p11
(dp12
S'2006'
p13
I2373
ssS'Italy'
p14
(dp15
S'2001'
p16
I10399
sS'2006'
p17
I14524
sS'2007'
p18
I15005
sS'2004'
p19
I13552
sS'2005'
p20
I14352
sS'2008'
p21
I15639
sS'2009'
p22
I15637
sS'2010'
p23
I15937
ssS'Czech Republic'
p24
(dp25
S'2006'
p26
I4802
sS'2007'
p27
I5423
sS'2005'
p28
I4233
sS'2008'
p29
I6068
sS'2009'
p30
I7295
sS'2011'
p31
I7451
sS'2010'
p32
I7058
ssS'Euro area (12 countries)'
p33
(dp34
S'2001'
p35
I12912
ssS'Lithuania'
p36
(dp37
S'2006'
p38
I2534
sS'2007'
p39
I3276
sS'2005'
p40
I2058
sS'2008'
p41
I4169
sS'2009'
p42
I4815
sS'2011'
p43
I4005
sS'2010'
p44
I4059
ssS'Luxembourg'
p45
(dp46
S'2003'
p47
I25780
sS'2001'
p48
I23105
sS'2006'
p49
I29480
sS'2007'
p50
I29892
sS'2004'
p51
I26941
sS'2005'
p52
I28396
sS'2008'
p53
I30917
sS'2009'
p54
I31764
sS'2011'
p55
I32538
sS'2010'
p56
I32333
ssS'France'
p57
(dp58
S'2001'
p59
I14886
sS'2006'
p60
I16209
sS'2007'
p61
I16441
sS'2004'
p62
I15242
sS'2005'
p63
I15946
sS'2008'
p64
I18991
sS'2009'
p65
I19644
sS'2010'
p66
I20058
ssS'Slovakia'
p67
(dp68
S'2006'
p69
I3313
sS'2007'
p70
I3972
sS'2005'
p71
I2830
sS'2008'
p72
I4792
sS'2009'
p73
I5671
sS'2010'
p74
I6117
ssS'Ireland'
p75
(dp76
S'2003'
p77
I17079
sS'2001'
p78
I14255
sS'2006'
p79
I19757
sS'2007'
p80
I22065
sS'2004'
p81
I18075
sS'2005'
p82
I18798
sS'2008'
p83
I22995
sS'2009'
p84
I22445
sS'2010'
p85
I19882
ssS'Norway'
p86
(dp87
S'2003'
p88
I27497
sS'2006'
p89
I28410
sS'2007'
p90
I28934
sS'2004'
p91
I26394
sS'2005'
p92
I25662
sS'2008'
p93
I31798
sS'2009'
p94
I33737
sS'2011'
p95
I36453
sS'2010'
p96
I32399
ssS'New Member States (12 countries)'
p97
(dp98
S'2006'
p99
I3521
sS'2007'
p100
I3462
sS'2004'
p101
I2476
sS'2005'
p102
I3197
sS'2008'
p103
I4076
sS'2009'
p104
I4796
sS'2011'
p105
I4539
sS'2010'
p106
I4425
ssS'Iceland'
p107
(dp108
S'2006'
p109
I28458
sS'2007'
p110
I28781
sS'2004'
p111
I22366
sS'2005'
p112
I23679
sS'2008'
p113
I32206
sS'2009'
p114
I22362
sS'2011'
p115
I18973
sS'2010'
p116
I18320
ssS'Euro area (17 countries)'
p117
(dp118
S'2006'
p119
I14508
sS'2007'
p120
I15400
sS'2004'
p121
I12800
sS'2005'
p122
I14407
sS'2008'
p123
I16445
sS'2009'
p124
I16844
sS'2011'
p125
I14301
sS'2010'
p126
I17027
ssS'European Union (15 countries)'
p127
(dp128
S'2001'
p129
I13864
sS'2006'
p130
I15709
sS'2007'
p131
I16713
sS'2005'
p132
I15468
sS'2008'
p133
I17270
sS'2009'
p134
I17194
sS'2011'
p135
I15668
sS'2010'
p136
I17449
ssS'Slovenia'
p137
(dp138
S'2006'
p139
I9317
sS'2007'
p140
I9907
sS'2005'
p141
I8797
sS'2008'
p142
I10893
sS'2009'
p143
I11864
sS'2011'
p144
I11999
sS'2010'
p145
I11736
ssS'Euro area (16 countries)'
p146
(dp147
S'2006'
p148
I14554
sS'2007'
p149
I15445
sS'2005'
p150
I14455
sS'2008'
p151
I16490
sS'2009'
p152
I16887
sS'2011'
p153
I14489
sS'2010'
p154
I17074
ssS'Belgium'
p155
(dp156
S'2003'
p157
I15522
sS'2001'
p158
I15492
sS'2006'
p159
I17213
sS'2007'
p160
I17566
sS'2004'
p161
I15674
sS'2005'
p162
I16578
sS'2008'
p163
I17985
sS'2009'
p164
I19313
sS'2011'
p165
I20008
sS'2010'
p166
I19464
ssS'Spain'
p167
(dp168
S'2001'
p169
I9027
sS'2006'
p170
I11480
sS'2007'
p171
I12038
sS'2004'
p172
I10476
sS'2005'
p173
I10600
sS'2008'
p174
I12950
sS'2009'
p175
I13300
sS'2011'
p176
I12514
sS'2010'
p177
I13030
ssS'Netherlands'
p178
(dp179
S'2001'
p180
I13820
sS'2006'
p181
I17263
sS'2007'
p182
I18244
sS'2005'
p183
I17000
sS'2008'
p184
I19522
sS'2009'
p185
I20156
sS'2011'
p186
I20310
sS'2010'
p187
I20292
ssS'Denmark'
p188
(dp189
S'2003'
p190
I20923
sS'2006'
p191
I22663
sS'2007'
p192
I23341
sS'2004'
p193
I21225
sS'2005'
p194
I22124
sS'2008'
p195
I24161
sS'2009'
p196
I25029
sS'2011'
p197
I26394
sS'2010'
p198
I25668
ssS'Poland'
p199
(dp200
S'2006'
p201
I3111
sS'2007'
p202
I3502
sS'2005'
p203
I2533
sS'2008'
p204
I4155
sS'2009'
p205
I5097
sS'2011'
p206
I5025
sS'2010'
p207
I4405
ssS'Finland'
p208
(dp209
S'2001'
p210
I14861
sS'2006'
p211
I18304
sS'2007'
p212
I18703
sS'2004'
p213
I16679
sS'2005'
p214
I17481
sS'2008'
p215
I19794
sS'2009'
p216
I20962
sS'2011'
p217
I21826
sS'2010'
p218
I21349
ssS'Sweden'
p219
(dp220
S'2006'
p221
I17991
sS'2007'
p222
I18845
sS'2004'
p223
I17329
sS'2005'
p224
I17498
sS'2008'
p225
I20573
sS'2009'
p226
I21248
sS'2011'
p227
I22506
sS'2010'
p228
I19709
ssS'Latvia'
p229
(dp230
S'2006'
p231
I2534
sS'2007'
p232
I3350
sS'2005'
p233
I2204
sS'2008'
p234
I4832
sS'2009'
p235
I5474
sS'2011'
p236
I4194
sS'2010'
p237
I4537
ssS'Croatia'
p238
(dp239
S'2010'
p240
I5722
ssS'Malta'
p241
(dp242
S'2006'
p243
I9039
sS'2007'
p244
I9302
sS'2005'
p245
I8578
sS'2008'
p246
I10054
sS'2009'
p247
I10654
sS'2011'
p248
I10862
sS'2010'
p249
I10375
ssS'European Union (27 countries)'
p250
(dp251
S'2006'
p252
I13583
sS'2007'
p253
I13931
sS'2005'
p254
I13488
sS'2008'
p255
I14520
sS'2009'
p256
I14624
sS'2011'
p257
I9500
sS'2010'
p258
I14750
ssS'Switzerland'
p259
(dp260
S'2008'
p261
I26914
sS'2009'
p262
I29310
sS'2010'
p263
I30666
ssS'Bulgaria'
p264
(dp265
S'2006'
p266
I1384
sS'2007'
p267
I1481
sS'2008'
p268
I2171
sS'2009'
p269
I2828
sS'2011'
p270
I2795
sS'2010'
p271
I3016
ssS'Romania'
p272
(dp273
S'2008'
p274
I1953
sS'2009'
p275
I2162
sS'2011'
p276
I2116
sS'2007'
p277
I1658
sS'2010'
p278
I2037
ssS'Portugal'
p279
(dp280
S'2001'
p281
I5982
sS'2006'
p282
I7311
sS'2007'
p283
I7573
sS'2004'
p284
I6916
sS'2005'
p285
I7195
sS'2008'
p286
I8143
sS'2009'
p287
I8282
sS'2011'
p288
I8410
sS'2010'
p289
I8678
ssS'Estonia'
p290
(dp291
S'2006'
p292
I3639
sS'2007'
p293
I4448
sS'2004'
p294
I2564
sS'2005'
p295
I2980
sS'2008'
p296
I5547
sS'2009'
p297
I6209
sS'2011'
p298
I5598
sS'2010'
p299
I5727
ssS'Germany (including  former GDR from 1991)'
p300
(dp301
S'2001'
p302
I15758
sS'2006'
p303
I15663
sS'2007'
p304
I17777
sS'2005'
p305
I16393
sS'2008'
p306
I18309
sS'2009'
p307
I18586
sS'2011'
p308
I19043
sS'2010'
p309
I18797
ssS'Euro area (EA11-2000, EA12-2006, EA13-2007, EA15-2008, EA16-2010, EA17)'
p310
(dp311
S'2006'
p312
I14790
sS'2007'
p313
I15649
sS'2005'
p314
I14705
sS'2008'
p315
I16690
sS'2009'
p316
I16887
sS'2011'
p317
I14301
sS'2010'
p318
I17074
ssS'United Kingdom'
p319
(dp320
S'2001'
p321
I17720
sS'2006'
p322
I19495
sS'2007'
p323
I21143
sS'2005'
p324
I18540
sS'2008'
p325
I18923
sS'2009'
p326
I16262
sS'2010'
p327
I17106
ssS'Austria'
p328
(dp329
S'2003'
p330
I15630
sS'2001'
p331
I15288
sS'2006'
p332
I17854
sS'2007'
p333
I18156
sS'2004'
p334
I17000
sS'2005'
p335
I18001
sS'2008'
p336
I19011
sS'2009'
p337
I19886
sS'2011'
p338
I21319
sS'2010'
p339
I20618
ssS'Greece'
p340
(dp341
S'2003'
p342
I8206
sS'2001'
p343
I7107
sS'2006'
p344
I9850
sS'2007'
p345
I10200
sS'2004'
p346
I8844
sS'2005'
p347
I9417
sS'2008'
p348
I10800
sS'2009'
p349
I11496
sS'2010'
p350
I11963
ssS'Hungary'
p351
(dp352
S'2006'
p353
I3849
sS'2007'
p354
I3936
sS'2005'
p355
I3447
sS'2008'
p356
I4400
sS'2009'
p357
I4739
sS'2011'
p358
I4535
sS'2010'
p359
I4241
ssS'Cyprus'
p360
(dp361
S'2006'
p362
I14536
sS'2007'
p363
I16014
sS'2005'
p364
I13157
sS'2008'
p365
I16543
sS'2009'
p366
I16782
sS'2010'
p367
I16981
sssS'description'
p368
S'DATASET: Distribution of income by quantiles (Source: SILC) [ilc_di01]'
p369
sb.