(dp1
I1960
(dp2
S'Canada'
p3
NsS'Sao Tome and Principe'
p4
NsS'Turkmenistan'
p5
NsS'Lao PDR'
p6
NsS'Lithuania'
p7
NsS'Cambodia'
p8
NsS'Switzerland'
p9
NsS'Ethiopia'
p10
NsS'Aruba'
p11
NsS'Swaziland'
p12
NsS'Argentina'
p13
NsS'Bolivia'
p14
NsS'Bahamas, The'
p15
NsS'Burkina Faso'
p16
NsS'Ghana'
p17
NsS'Saudi Arabia'
p18
NsS'Japan'
p19
NsS'Channel Islands'
p20
NsS'American Samoa'
p21
NsS'Northern Mariana Islands'
p22
NsS'Slovenia'
p23
NsS'Guatemala'
p24
NsS'Bosnia and Herzegovina'
p25
NsS'Kuwait'
p26
NsS'Russian Federation'
p27
NsS'Jordan'
p28
NsS'St. Lucia'
p29
NsS'Congo, Rep.'
p30
NsS'Dominica'
p31
NsS'Liberia'
p32
NsS'Maldives'
p33
NsS'Pakistan'
p34
NsS'Oman'
p35
NsS'Tanzania'
p36
NsS'Albania'
p37
NsS'Gabon'
p38
NsS'Monaco'
p39
NsS'New Zealand'
p40
NsS'Jamaica'
p41
NsS'Greenland'
p42
NsS'Samoa'
p43
NsS'Slovak Republic'
p44
NsS'United Arab Emirates'
p45
NsS'Guam'
p46
NsS'Uruguay'
p47
NsS'India'
p48
NsS'Azerbaijan'
p49
NsS'Lesotho'
p50
NsS'Kenya'
p51
NsS'Tajikistan'
p52
NsS'Turkey'
p53
NsS'Afghanistan'
p54
NsS'Venezuela, RB'
p55
NsS'Bangladesh'
p56
NsS'Mauritania'
p57
NsS'Solomon Islands'
p58
NsS'Korea, Rep.'
p59
NsS'San Marino'
p60
NsS'French Polynesia'
p61
NsS'France'
p62
NsS'Syrian Arab Republic'
p63
NsS'Bermuda'
p64
NsS'Namibia'
p65
NsS'Somalia'
p66
NsS'Peru'
p67
NsS'Vanuatu'
p68
NsS'Nigeria'
p69
NsS'Seychelles'
p70
NsS'Norway'
p71
NsS"Cote d'Ivoire"
p72
NsS'West Bank and Gaza'
p73
NsS'Benin'
p74
NsS'Cuba'
p75
NsS'Cameroon'
p76
NsS'Montenegro'
p77
NsS'Togo'
p78
NsS'China'
p79
NsS'Armenia'
p80
NsS'Timor-Leste'
p81
NsS'Dominican Republic'
p82
NsS'Ukraine'
p83
NsS'Bahrain'
p84
NsS'Tonga'
p85
NsS'Finland'
p86
NsS'Libya'
p87
NsS'Cayman Islands'
p88
NsS'Central African Republic'
p89
NsS'Mauritius'
p90
NsS'Liechtenstein'
p91
NsS'Belarus'
p92
NsS'Mali'
p93
NsS'Micronesia, Fed. Sts.'
p94
NsS'Korea, Dem. Rep.'
p95
NsS'Bulgaria'
p96
NsS'United States'
p97
NsS'Romania'
p98
NsS'Angola'
p99
NsS'Egypt, Arab Rep.'
p100
NsS'South Africa'
p101
NsS'St. Vincent and the Grenadines'
p102
NsS'Cyprus'
p103
NsS'Brunei Darussalam'
p104
NsS'Qatar'
p105
NsS'Malaysia'
p106
NsS'Austria'
p107
NsS'Vietnam'
p108
NsS'Mozambique'
p109
NsS'Uganda'
p110
NsS'Kyrgyz Republic'
p111
NsS'Hungary'
p112
NsS'Niger'
p113
NsS'Isle of Man'
p114
NsS'Brazil'
p115
NsS'Virgin Islands (U.S.)'
p116
NsS'Guinea'
p117
NsS'Panama'
p118
NsS'Costa Rica'
p119
NsS'Luxembourg'
p120
NsS'Cape Verde'
p121
NsS'Andorra'
p122
NsS'Ireland'
p123
NsS'Palau'
p124
NsS'Faeroe Islands'
p125
NsS'Ecuador'
p126
NsS'Czech Republic'
p127
NsS'Australia'
p128
NsS'Algeria'
p129
NsS'El Salvador'
p130
NsS'Tuvalu'
p131
NsS'St. Kitts and Nevis'
p132
NsS'Marshall Islands'
p133
NsS'Chile'
p134
NsS'Puerto Rico'
p135
NsS'Belgium'
p136
NsS'Kiribati'
p137
NsS'Haiti'
p138
NsS'Belize'
p139
NsS'Sierra Leone'
p140
NsS'Georgia'
p141
NsS'Denmark'
p142
NsS'Philippines'
p143
NsS'Moldova'
p144
NsS'Portugal'
p145
NsS'Morocco'
p146
NsS'Croatia'
p147
NsS'Mongolia'
p148
NsS'Guinea-Bissau'
p149
NsS'Thailand'
p150
NsS'Macedonia, FYR'
p151
NsS'Grenada'
p152
NsS'Yemen, Rep.'
p153
NsS'Iraq'
p154
NsS'Chad'
p155
NsS'Estonia'
p156
NsS'Kosovo'
p157
NsS'Sweden'
p158
NsS'Mexico'
p159
NsS'Hong Kong SAR, China'
p160
NsS'Uzbekistan'
p161
NsS'Djibouti'
p162
NsS'Rwanda'
p163
NsS'Antigua and Barbuda'
p164
NsS'Spain'
p165
NsS'Colombia'
p166
NsS'Burundi'
p167
NsS'Fiji'
p168
NsS'Barbados'
p169
NsS'Madagascar'
p170
NsS'Italy'
p171
NsS'Curacao'
p172
NsS'Bhutan'
p173
NsS'Sudan'
p174
NsS'Nepal'
p175
NsS'Singapore'
p176
NsS'Malta'
p177
NsS'Netherlands'
p178
NsS'Macao SAR, China'
p179
NsS'Suriname'
p180
NsS'Turks and Caicos Islands'
p181
NsS'St. Martin (French part)'
p182
NsS'Iran, Islamic Rep.'
p183
NsS'Israel'
p184
NsS'Indonesia'
p185
NsS'Iceland'
p186
NsS'Zambia'
p187
NsS'Senegal'
p188
NsS'Papua New Guinea'
p189
NsS'Malawi'
p190
NsS'Trinidad and Tobago'
p191
NsS'Zimbabwe'
p192
NsS'Germany'
p193
NsS'Kazakhstan'
p194
NsS'Poland'
p195
NsS'Eritrea'
p196
NsS'New Caledonia'
p197
NsS'Sri Lanka'
p198
NsS'Latvia'
p199
NsS'South Sudan'
p200
NsS'Guyana'
p201
NsS'Honduras'
p202
NsS'Myanmar'
p203
NsS'Equatorial Guinea'
p204
NsS'Tunisia'
p205
NsS'Nicaragua'
p206
NsS'Congo, Dem. Rep.'
p207
NsS'Serbia'
p208
NsS'Botswana'
p209
NsS'United Kingdom'
p210
NsS'Gambia, The'
p211
NsS'Sint Maarten (Dutch part)'
p212
NsS'Greece'
p213
NsS'Paraguay'
p214
NsS'Lebanon'
p215
NsS'Comoros'
p216
NssI1961
(dp217
g3
Nsg4
Nsg5
Nsg6
Nsg7
Nsg8
Nsg9
Nsg10
Nsg11
Nsg12
Nsg13
Nsg14
Nsg15
Nsg16
Nsg17
Nsg18
Nsg19
Nsg20
Nsg21
Nsg22
Nsg23
Nsg24
Nsg25
Nsg26
Nsg27
Nsg28
Nsg29
Nsg30
Nsg31
Nsg32
Nsg33
Nsg34
Nsg35
Nsg36
Nsg37
Nsg38
Nsg39
Nsg40
Nsg41
Nsg42
Nsg43
Nsg44
Nsg45
Nsg46
Nsg47
Nsg48
Nsg49
Nsg50
Nsg51
Nsg52
Nsg53
Nsg54
Nsg55
Nsg56
Nsg57
Nsg58
Nsg59
Nsg60
Nsg61
Nsg62
Nsg63
Nsg64
Nsg65
Nsg66
Nsg67
Nsg68
Nsg69
Nsg70
Nsg71
Nsg72
Nsg73
Nsg74
Nsg75
Nsg76
Nsg77
Nsg78
Nsg79
Nsg80
Nsg81
Nsg82
Nsg83
Nsg84
Nsg85
Nsg86
Nsg87
Nsg88
Nsg89
Nsg90
Nsg91
Nsg92
Nsg93
Nsg94
Nsg95
Nsg96
Nsg97
Nsg98
Nsg99
Nsg100
Nsg101
Nsg102
Nsg103
Nsg104
Nsg105
Nsg106
Nsg107
Nsg108
Nsg109
Nsg110
Nsg111
Nsg112
Nsg113
Nsg114
Nsg115
Nsg116
Nsg117
Nsg118
Nsg119
Nsg120
Nsg121
Nsg122
Nsg123
Nsg124
Nsg125
Nsg126
Nsg127
Nsg128
Nsg129
Nsg130
Nsg131
Nsg132
Nsg133
Nsg134
Nsg135
Nsg136
Nsg137
Nsg138
Nsg139
Nsg140
Nsg141
Nsg142
Nsg143
Nsg144
Nsg145
Nsg146
Nsg147
Nsg148
Nsg149
Nsg150
Nsg151
Nsg152
Nsg153
Nsg154
Nsg155
Nsg156
Nsg157
Nsg158
Nsg159
Nsg160
Nsg161
Nsg162
Nsg163
Nsg164
Nsg165
Nsg166
Nsg167
Nsg168
Nsg169
Nsg170
Nsg171
Nsg172
Nsg173
Nsg174
Nsg175
Nsg176
Nsg177
Nsg178
Nsg179
Nsg180
Nsg181
Nsg182
Nsg183
Nsg184
Nsg185
Nsg186
Nsg187
Nsg188
Nsg189
Nsg190
Nsg191
Nsg192
Nsg193
Nsg194
Nsg195
Nsg196
Nsg197
Nsg198
Nsg199
Nsg200
Nsg201
Nsg202
Nsg203
Nsg204
Nsg205
Nsg206
Nsg207
Nsg208
Nsg209
Nsg210
Nsg211
Nsg212
Nsg213
Nsg214
Nsg215
Nsg216
NssI1962
(dp218
g3
Nsg4
Nsg5
Nsg6
Nsg7
Nsg8
Nsg9
Nsg10
Nsg11
Nsg12
Nsg13
Nsg14
Nsg15
Nsg16
Nsg17
Nsg18
Nsg19
Nsg20
Nsg21
Nsg22
Nsg23
Nsg24
Nsg25
Nsg26
Nsg27
Nsg28
Nsg29
Nsg30
Nsg31
Nsg32
Nsg33
Nsg34
Nsg35
Nsg36
Nsg37
Nsg38
Nsg39
Nsg40
Nsg41
Nsg42
Nsg43
Nsg44
Nsg45
Nsg46
Nsg47
Nsg48
Nsg49
Nsg50
Nsg51
Nsg52
Nsg53
Nsg54
Nsg55
Nsg56
Nsg57
Nsg58
Nsg59
Nsg60
Nsg61
Nsg62
Nsg63
Nsg64
Nsg65
Nsg66
Nsg67
Nsg68
Nsg69
Nsg70
Nsg71
Nsg72
Nsg73
Nsg74
Nsg75
Nsg76
Nsg77
Nsg78
Nsg79
Nsg80
Nsg81
Nsg82
Nsg83
Nsg84
Nsg85
Nsg86
Nsg87
Nsg88
Nsg89
Nsg90
Nsg91
Nsg92
Nsg93
Nsg94
Nsg95
Nsg96
Nsg97
Nsg98
Nsg99
Nsg100
Nsg101
Nsg102
Nsg103
Nsg104
Nsg105
Nsg106
Nsg107
Nsg108
Nsg109
Nsg110
Nsg111
Nsg112
Nsg113
Nsg114
Nsg115
Nsg116
Nsg117
Nsg118
Nsg119
Nsg120
Nsg121
Nsg122
Nsg123
Nsg124
Nsg125
Nsg126
Nsg127
Nsg128
Nsg129
Nsg130
Nsg131
Nsg132
Nsg133
Nsg134
Nsg135
Nsg136
Nsg137
Nsg138
Nsg139
Nsg140
Nsg141
Nsg142
Nsg143
Nsg144
Nsg145
Nsg146
Nsg147
Nsg148
Nsg149
Nsg150
Nsg151
Nsg152
Nsg153
Nsg154
Nsg155
Nsg156
Nsg157
Nsg158
Nsg159
Nsg160
Nsg161
Nsg162
Nsg163
Nsg164
Nsg165
Nsg166
Nsg167
Nsg168
Nsg169
Nsg170
Nsg171
Nsg172
Nsg173
Nsg174
Nsg175
Nsg176
Nsg177
Nsg178
Nsg179
Nsg180
Nsg181
Nsg182
Nsg183
Nsg184
Nsg185
Nsg186
Nsg187
Nsg188
Nsg189
Nsg190
Nsg191
Nsg192
Nsg193
Nsg194
Nsg195
Nsg196
Nsg197
Nsg198
Nsg199
Nsg200
Nsg201
Nsg202
Nsg203
Nsg204
Nsg205
Nsg206
Nsg207
Nsg208
Nsg209
Nsg210
Nsg211
Nsg212
Nsg213
Nsg214
Nsg215
Nsg216
NssI1963
(dp219
g3
Nsg4
Nsg5
Nsg6
Nsg7
Nsg8
Nsg9
Nsg10
Nsg11
Nsg12
Nsg13
Nsg14
Nsg15
Nsg16
Nsg17
Nsg18
Nsg19
Nsg20
Nsg21
Nsg22
Nsg23
Nsg24
Nsg25
Nsg26
Nsg27
Nsg28
Nsg29
Nsg30
Nsg31
Nsg32
Nsg33
Nsg34
Nsg35
Nsg36
Nsg37
Nsg38
Nsg39
Nsg40
Nsg41
Nsg42
Nsg43
Nsg44
Nsg45
Nsg46
Nsg47
Nsg48
Nsg49
Nsg50
Nsg51
Nsg52
Nsg53
Nsg54
Nsg55
Nsg56
Nsg57
Nsg58
Nsg59
Nsg60
Nsg61
Nsg62
Nsg63
Nsg64
Nsg65
Nsg66
Nsg67
Nsg68
Nsg69
Nsg70
Nsg71
Nsg72
Nsg73
Nsg74
Nsg75
Nsg76
Nsg77
Nsg78
Nsg79
Nsg80
Nsg81
Nsg82
Nsg83
Nsg84
Nsg85
Nsg86
Nsg87
Nsg88
Nsg89
Nsg90
Nsg91
Nsg92
Nsg93
Nsg94
Nsg95
Nsg96
Nsg97
Nsg98
Nsg99
Nsg100
Nsg101
Nsg102
Nsg103
Nsg104
Nsg105
Nsg106
Nsg107
Nsg108
Nsg109
Nsg110
Nsg111
Nsg112
Nsg113
Nsg114
Nsg115
Nsg116
Nsg117
Nsg118
Nsg119
Nsg120
Nsg121
Nsg122
Nsg123
Nsg124
Nsg125
Nsg126
Nsg127
Nsg128
Nsg129
Nsg130
Nsg131
Nsg132
Nsg133
Nsg134
Nsg135
Nsg136
Nsg137
Nsg138
Nsg139
Nsg140
Nsg141
Nsg142
Nsg143
Nsg144
Nsg145
Nsg146
Nsg147
Nsg148
Nsg149
Nsg150
Nsg151
Nsg152
Nsg153
Nsg154
Nsg155
Nsg156
Nsg157
Nsg158
Nsg159
Nsg160
Nsg161
Nsg162
Nsg163
Nsg164
Nsg165
Nsg166
Nsg167
Nsg168
Nsg169
Nsg170
Nsg171
Nsg172
Nsg173
Nsg174
Nsg175
Nsg176
Nsg177
Nsg178
Nsg179
Nsg180
Nsg181
Nsg182
Nsg183
Nsg184
Nsg185
Nsg186
Nsg187
Nsg188
Nsg189
Nsg190
Nsg191
Nsg192
Nsg193
Nsg194
Nsg195
Nsg196
Nsg197
Nsg198
Nsg199
Nsg200
Nsg201
Nsg202
Nsg203
Nsg204
Nsg205
Nsg206
Nsg207
Nsg208
Nsg209
Nsg210
Nsg211
Nsg212
Nsg213
Nsg214
Nsg215
Nsg216
NssI1964
(dp220
g3
Nsg4
Nsg5
Nsg6
Nsg7
Nsg8
Nsg9
Nsg10
Nsg11
Nsg12
Nsg13
Nsg14
Nsg15
Nsg16
Nsg17
Nsg18
Nsg19
Nsg20
Nsg21
Nsg22
Nsg23
Nsg24
Nsg25
Nsg26
Nsg27
Nsg28
Nsg29
Nsg30
Nsg31
Nsg32
Nsg33
Nsg34
Nsg35
Nsg36
Nsg37
Nsg38
Nsg39
Nsg40
Nsg41
Nsg42
Nsg43
Nsg44
Nsg45
Nsg46
Nsg47
Nsg48
Nsg49
Nsg50
Nsg51
Nsg52
Nsg53
Nsg54
Nsg55
Nsg56
Nsg57
Nsg58
Nsg59
Nsg60
Nsg61
Nsg62
Nsg63
Nsg64
Nsg65
Nsg66
Nsg67
Nsg68
Nsg69
Nsg70
Nsg71
Nsg72
Nsg73
Nsg74
Nsg75
Nsg76
Nsg77
Nsg78
Nsg79
Nsg80
Nsg81
Nsg82
Nsg83
Nsg84
Nsg85
Nsg86
Nsg87
Nsg88
Nsg89
Nsg90
Nsg91
Nsg92
Nsg93
Nsg94
Nsg95
Nsg96
Nsg97
Nsg98
Nsg99
Nsg100
Nsg101
Nsg102
Nsg103
Nsg104
Nsg105
Nsg106
Nsg107
Nsg108
Nsg109
Nsg110
Nsg111
Nsg112
Nsg113
Nsg114
Nsg115
Nsg116
Nsg117
Nsg118
Nsg119
Nsg120
Nsg121
Nsg122
Nsg123
Nsg124
Nsg125
Nsg126
Nsg127
Nsg128
Nsg129
Nsg130
Nsg131
Nsg132
Nsg133
Nsg134
Nsg135
Nsg136
Nsg137
Nsg138
Nsg139
Nsg140
Nsg141
Nsg142
Nsg143
Nsg144
Nsg145
Nsg146
Nsg147
Nsg148
Nsg149
Nsg150
Nsg151
Nsg152
Nsg153
Nsg154
Nsg155
Nsg156
Nsg157
Nsg158
Nsg159
Nsg160
Nsg161
Nsg162
Nsg163
Nsg164
Nsg165
Nsg166
Nsg167
Nsg168
Nsg169
Nsg170
Nsg171
Nsg172
Nsg173
Nsg174
Nsg175
Nsg176
Nsg177
Nsg178
Nsg179
Nsg180
Nsg181
Nsg182
Nsg183
Nsg184
Nsg185
Nsg186
Nsg187
Nsg188
Nsg189
Nsg190
Nsg191
Nsg192
Nsg193
Nsg194
Nsg195
Nsg196
Nsg197
Nsg198
Nsg199
Nsg200
Nsg201
Nsg202
Nsg203
Nsg204
Nsg205
Nsg206
Nsg207
Nsg208
Nsg209
Nsg210
Nsg211
Nsg212
Nsg213
Nsg214
Nsg215
Nsg216
NssI1965
(dp221
g3
Nsg4
Nsg5
Nsg6
Nsg7
Nsg8
Nsg9
Nsg10
Nsg11
Nsg12
Nsg13
Nsg14
Nsg15
Nsg16
Nsg17
Nsg18
Nsg19
Nsg20
Nsg21
Nsg22
Nsg23
Nsg24
Nsg25
Nsg26
Nsg27
Nsg28
Nsg29
Nsg30
Nsg31
Nsg32
Nsg33
Nsg34
Nsg35
Nsg36
Nsg37
Nsg38
Nsg39
Nsg40
Nsg41
Nsg42
Nsg43
Nsg44
Nsg45
Nsg46
Nsg47
Nsg48
Nsg49
Nsg50
Nsg51
Nsg52
Nsg53
Nsg54
Nsg55
Nsg56
Nsg57
Nsg58
Nsg59
Nsg60
Nsg61
Nsg62
Nsg63
Nsg64
Nsg65
Nsg66
Nsg67
Nsg68
Nsg69
Nsg70
Nsg71
Nsg72
Nsg73
Nsg74
Nsg75
Nsg76
Nsg77
Nsg78
Nsg79
Nsg80
Nsg81
Nsg82
Nsg83
Nsg84
Nsg85
Nsg86
Nsg87
Nsg88
Nsg89
Nsg90
Nsg91
Nsg92
Nsg93
Nsg94
Nsg95
Nsg96
Nsg97
Nsg98
Nsg99
Nsg100
Nsg101
Nsg102
Nsg103
Nsg104
Nsg105
Nsg106
Nsg107
Nsg108
Nsg109
Nsg110
Nsg111
Nsg112
Nsg113
Nsg114
Nsg115
Nsg116
Nsg117
Nsg118
Nsg119
Nsg120
Nsg121
Nsg122
Nsg123
Nsg124
Nsg125
Nsg126
Nsg127
Nsg128
Nsg129
Nsg130
Nsg131
Nsg132
Nsg133
Nsg134
Nsg135
Nsg136
Nsg137
Nsg138
Nsg139
Nsg140
Nsg141
Nsg142
Nsg143
Nsg144
Nsg145
Nsg146
Nsg147
Nsg148
Nsg149
Nsg150
Nsg151
Nsg152
Nsg153
Nsg154
Nsg155
Nsg156
Nsg157
Nsg158
Nsg159
Nsg160
Nsg161
Nsg162
Nsg163
Nsg164
Nsg165
Nsg166
Nsg167
Nsg168
Nsg169
Nsg170
Nsg171
Nsg172
Nsg173
Nsg174
Nsg175
Nsg176
Nsg177
Nsg178
Nsg179
Nsg180
Nsg181
Nsg182
Nsg183
Nsg184
Nsg185
Nsg186
Nsg187
Nsg188
Nsg189
Nsg190
Nsg191
Nsg192
Nsg193
Nsg194
Nsg195
Nsg196
Nsg197
Nsg198
Nsg199
Nsg200
Nsg201
Nsg202
Nsg203
Nsg204
Nsg205
Nsg206
Nsg207
Nsg208
Nsg209
Nsg210
Nsg211
Nsg212
Nsg213
Nsg214
Nsg215
Nsg216
NssI1966
(dp222
g3
Nsg4
Nsg5
Nsg6
Nsg7
Nsg8
Nsg9
Nsg10
Nsg11
Nsg12
Nsg13
Nsg14
Nsg15
Nsg16
Nsg17
Nsg18
Nsg19
Nsg20
Nsg21
Nsg22
Nsg23
Nsg24
Nsg25
Nsg26
Nsg27
Nsg28
Nsg29
Nsg30
Nsg31
Nsg32
Nsg33
Nsg34
Nsg35
Nsg36
Nsg37
Nsg38
Nsg39
Nsg40
Nsg41
Nsg42
Nsg43
Nsg44
Nsg45
Nsg46
Nsg47
Nsg48
Nsg49
Nsg50
Nsg51
Nsg52
Nsg53
Nsg54
Nsg55
Nsg56
Nsg57
Nsg58
Nsg59
Nsg60
Nsg61
Nsg62
Nsg63
Nsg64
Nsg65
Nsg66
Nsg67
Nsg68
Nsg69
Nsg70
Nsg71
Nsg72
Nsg73
Nsg74
Nsg75
Nsg76
Nsg77
Nsg78
Nsg79
Nsg80
Nsg81
Nsg82
Nsg83
Nsg84
Nsg85
Nsg86
Nsg87
Nsg88
Nsg89
Nsg90
Nsg91
Nsg92
Nsg93
Nsg94
Nsg95
Nsg96
Nsg97
Nsg98
Nsg99
Nsg100
Nsg101
Nsg102
Nsg103
Nsg104
Nsg105
Nsg106
Nsg107
Nsg108
Nsg109
Nsg110
Nsg111
Nsg112
Nsg113
Nsg114
Nsg115
Nsg116
Nsg117
Nsg118
Nsg119
Nsg120
Nsg121
Nsg122
Nsg123
Nsg124
Nsg125
Nsg126
Nsg127
Nsg128
Nsg129
Nsg130
Nsg131
Nsg132
Nsg133
Nsg134
Nsg135
Nsg136
Nsg137
Nsg138
Nsg139
Nsg140
Nsg141
Nsg142
Nsg143
Nsg144
Nsg145
Nsg146
Nsg147
Nsg148
Nsg149
Nsg150
Nsg151
Nsg152
Nsg153
Nsg154
Nsg155
Nsg156
Nsg157
Nsg158
Nsg159
Nsg160
Nsg161
Nsg162
Nsg163
Nsg164
Nsg165
Nsg166
Nsg167
Nsg168
Nsg169
Nsg170
Nsg171
Nsg172
Nsg173
Nsg174
Nsg175
Nsg176
Nsg177
Nsg178
Nsg179
Nsg180
Nsg181
Nsg182
Nsg183
Nsg184
Nsg185
Nsg186
Nsg187
Nsg188
Nsg189
Nsg190
Nsg191
Nsg192
Nsg193
Nsg194
Nsg195
Nsg196
Nsg197
Nsg198
Nsg199
Nsg200
Nsg201
Nsg202
Nsg203
Nsg204
Nsg205
Nsg206
Nsg207
Nsg208
Nsg209
Nsg210
Nsg211
Nsg212
Nsg213
Nsg214
Nsg215
Nsg216
NssI1967
(dp223
g3
Nsg4
Nsg5
Nsg6
Nsg7
Nsg8
Nsg9
Nsg10
Nsg11
Nsg12
Nsg13
Nsg14
Nsg15
Nsg16
Nsg17
Nsg18
Nsg19
Nsg20
Nsg21
Nsg22
Nsg23
Nsg24
Nsg25
Nsg26
Nsg27
Nsg28
Nsg29
Nsg30
Nsg31
Nsg32
Nsg33
Nsg34
Nsg35
Nsg36
Nsg37
Nsg38
Nsg39
Nsg40
Nsg41
Nsg42
Nsg43
Nsg44
Nsg45
Nsg46
Nsg47
Nsg48
Nsg49
Nsg50
Nsg51
Nsg52
Nsg53
Nsg54
Nsg55
Nsg56
Nsg57
Nsg58
Nsg59
Nsg60
Nsg61
Nsg62
Nsg63
Nsg64
Nsg65
Nsg66
Nsg67
Nsg68
Nsg69
Nsg70
Nsg71
Nsg72
Nsg73
Nsg74
Nsg75
Nsg76
Nsg77
Nsg78
Nsg79
Nsg80
Nsg81
Nsg82
Nsg83
Nsg84
Nsg85
Nsg86
Nsg87
Nsg88
Nsg89
Nsg90
Nsg91
Nsg92
Nsg93
Nsg94
Nsg95
Nsg96
Nsg97
Nsg98
Nsg99
Nsg100
Nsg101
Nsg102
Nsg103
Nsg104
Nsg105
Nsg106
Nsg107
Nsg108
Nsg109
Nsg110
Nsg111
Nsg112
Nsg113
Nsg114
Nsg115
Nsg116
Nsg117
Nsg118
Nsg119
Nsg120
Nsg121
Nsg122
Nsg123
Nsg124
Nsg125
Nsg126
Nsg127
Nsg128
Nsg129
Nsg130
Nsg131
Nsg132
Nsg133
Nsg134
Nsg135
Nsg136
Nsg137
Nsg138
Nsg139
Nsg140
Nsg141
Nsg142
Nsg143
Nsg144
Nsg145
Nsg146
Nsg147
Nsg148
Nsg149
Nsg150
Nsg151
Nsg152
Nsg153
Nsg154
Nsg155
Nsg156
Nsg157
Nsg158
Nsg159
Nsg160
Nsg161
Nsg162
Nsg163
Nsg164
Nsg165
Nsg166
Nsg167
Nsg168
Nsg169
Nsg170
Nsg171
Nsg172
Nsg173
Nsg174
Nsg175
Nsg176
Nsg177
Nsg178
Nsg179
Nsg180
Nsg181
Nsg182
Nsg183
Nsg184
Nsg185
Nsg186
Nsg187
Nsg188
Nsg189
Nsg190
Nsg191
Nsg192
Nsg193
Nsg194
Nsg195
Nsg196
Nsg197
Nsg198
Nsg199
Nsg200
Nsg201
Nsg202
Nsg203
Nsg204
Nsg205
Nsg206
Nsg207
Nsg208
Nsg209
Nsg210
Nsg211
Nsg212
Nsg213
Nsg214
Nsg215
Nsg216
NssI1968
(dp224
g3
Nsg4
Nsg5
Nsg6
Nsg7
Nsg8
Nsg9
Nsg10
Nsg11
Nsg12
Nsg13
Nsg14
Nsg15
Nsg16
Nsg17
Nsg18
Nsg19
Nsg20
Nsg21
Nsg22
Nsg23
Nsg24
Nsg25
Nsg26
Nsg27
Nsg28
Nsg29
Nsg30
Nsg31
Nsg32
Nsg33
Nsg34
Nsg35
Nsg36
Nsg37
Nsg38
Nsg39
Nsg40
Nsg41
Nsg42
Nsg43
Nsg44
Nsg45
Nsg46
Nsg47
Nsg48
Nsg49
Nsg50
Nsg51
Nsg52
Nsg53
Nsg54
Nsg55
Nsg56
Nsg57
Nsg58
Nsg59
Nsg60
Nsg61
Nsg62
Nsg63
Nsg64
Nsg65
Nsg66
Nsg67
Nsg68
Nsg69
Nsg70
Nsg71
Nsg72
Nsg73
Nsg74
Nsg75
Nsg76
Nsg77
Nsg78
Nsg79
Nsg80
Nsg81
Nsg82
Nsg83
Nsg84
Nsg85
Nsg86
Nsg87
Nsg88
Nsg89
Nsg90
Nsg91
Nsg92
Nsg93
Nsg94
Nsg95
Nsg96
Nsg97
Nsg98
Nsg99
Nsg100
Nsg101
Nsg102
Nsg103
Nsg104
Nsg105
Nsg106
Nsg107
Nsg108
Nsg109
Nsg110
Nsg111
Nsg112
Nsg113
Nsg114
Nsg115
Nsg116
Nsg117
Nsg118
Nsg119
Nsg120
Nsg121
Nsg122
Nsg123
Nsg124
Nsg125
Nsg126
Nsg127
Nsg128
Nsg129
Nsg130
Nsg131
Nsg132
Nsg133
Nsg134
Nsg135
Nsg136
Nsg137
Nsg138
Nsg139
Nsg140
Nsg141
Nsg142
Nsg143
Nsg144
Nsg145
Nsg146
Nsg147
Nsg148
Nsg149
Nsg150
Nsg151
Nsg152
Nsg153
Nsg154
Nsg155
Nsg156
Nsg157
Nsg158
Nsg159
Nsg160
Nsg161
Nsg162
Nsg163
Nsg164
Nsg165
Nsg166
Nsg167
Nsg168
Nsg169
Nsg170
Nsg171
Nsg172
Nsg173
Nsg174
Nsg175
Nsg176
Nsg177
Nsg178
Nsg179
Nsg180
Nsg181
Nsg182
Nsg183
Nsg184
Nsg185
Nsg186
Nsg187
Nsg188
Nsg189
Nsg190
Nsg191
Nsg192
Nsg193
Nsg194
Nsg195
Nsg196
Nsg197
Nsg198
Nsg199
Nsg200
Nsg201
Nsg202
Nsg203
Nsg204
Nsg205
Nsg206
Nsg207
Nsg208
Nsg209
Nsg210
Nsg211
Nsg212
Nsg213
Nsg214
Nsg215
Nsg216
NssI1969
(dp225
g3
Nsg4
Nsg5
Nsg6
Nsg7
Nsg8
Nsg9
Nsg10
Nsg11
Nsg12
Nsg13
Nsg14
Nsg15
Nsg16
Nsg17
Nsg18
Nsg19
Nsg20
Nsg21
Nsg22
Nsg23
Nsg24
Nsg25
Nsg26
Nsg27
Nsg28
Nsg29
Nsg30
Nsg31
Nsg32
Nsg33
Nsg34
Nsg35
Nsg36
Nsg37
Nsg38
Nsg39
Nsg40
Nsg41
Nsg42
Nsg43
Nsg44
Nsg45
Nsg46
Nsg47
Nsg48
Nsg49
Nsg50
Nsg51
Nsg52
Nsg53
Nsg54
Nsg55
Nsg56
Nsg57
Nsg58
Nsg59
Nsg60
Nsg61
Nsg62
Nsg63
Nsg64
Nsg65
Nsg66
Nsg67
Nsg68
Nsg69
Nsg70
Nsg71
Nsg72
Nsg73
Nsg74
Nsg75
Nsg76
Nsg77
Nsg78
Nsg79
Nsg80
Nsg81
Nsg82
Nsg83
Nsg84
Nsg85
Nsg86
Nsg87
Nsg88
Nsg89
Nsg90
Nsg91
Nsg92
Nsg93
Nsg94
Nsg95
Nsg96
Nsg97
Nsg98
Nsg99
Nsg100
Nsg101
Nsg102
Nsg103
Nsg104
Nsg105
Nsg106
Nsg107
Nsg108
Nsg109
Nsg110
Nsg111
Nsg112
Nsg113
Nsg114
Nsg115
Nsg116
Nsg117
Nsg118
Nsg119
Nsg120
Nsg121
Nsg122
Nsg123
Nsg124
Nsg125
Nsg126
Nsg127
Nsg128
Nsg129
Nsg130
Nsg131
Nsg132
Nsg133
Nsg134
Nsg135
Nsg136
Nsg137
Nsg138
Nsg139
Nsg140
Nsg141
Nsg142
Nsg143
Nsg144
Nsg145
Nsg146
Nsg147
Nsg148
Nsg149
Nsg150
Nsg151
Nsg152
Nsg153
Nsg154
Nsg155
Nsg156
Nsg157
Nsg158
Nsg159
Nsg160
Nsg161
Nsg162
Nsg163
Nsg164
Nsg165
Nsg166
Nsg167
Nsg168
Nsg169
Nsg170
Nsg171
Nsg172
Nsg173
Nsg174
Nsg175
Nsg176
Nsg177
Nsg178
Nsg179
Nsg180
Nsg181
Nsg182
Nsg183
Nsg184
Nsg185
Nsg186
Nsg187
Nsg188
Nsg189
Nsg190
Nsg191
Nsg192
Nsg193
Nsg194
Nsg195
Nsg196
Nsg197
Nsg198
Nsg199
Nsg200
Nsg201
Nsg202
Nsg203
Nsg204
Nsg205
Nsg206
Nsg207
Nsg208
Nsg209
Nsg210
Nsg211
Nsg212
Nsg213
Nsg214
Nsg215
Nsg216
NssI1970
(dp226
g3
Nsg4
Nsg5
Nsg6
Nsg7
Nsg8
Nsg9
Nsg10
Nsg11
Nsg12
Nsg13
Nsg14
Nsg15
Nsg16
Nsg17
Nsg18
Nsg19
Nsg20
Nsg21
Nsg22
Nsg23
Nsg24
Nsg25
Nsg26
Nsg27
Nsg28
Nsg29
Nsg30
Nsg31
Nsg32
Nsg33
Nsg34
Nsg35
Nsg36
Nsg37
Nsg38
Nsg39
Nsg40
Nsg41
Nsg42
Nsg43
Nsg44
Nsg45
Nsg46
Nsg47
Nsg48
Nsg49
Nsg50
Nsg51
Nsg52
Nsg53
Nsg54
Nsg55
Nsg56
Nsg57
Nsg58
Nsg59
Nsg60
Nsg61
Nsg62
Nsg63
Nsg64
Nsg65
Nsg66
Nsg67
Nsg68
Nsg69
Nsg70
Nsg71
Nsg72
Nsg73
Nsg74
Nsg75
Nsg76
Nsg77
Nsg78
Nsg79
Nsg80
Nsg81
Nsg82
Nsg83
Nsg84
Nsg85
Nsg86
Nsg87
Nsg88
Nsg89
Nsg90
Nsg91
Nsg92
Nsg93
Nsg94
Nsg95
Nsg96
Nsg97
Nsg98
Nsg99
Nsg100
Nsg101
Nsg102
Nsg103
Nsg104
Nsg105
Nsg106
Nsg107
Nsg108
Nsg109
Nsg110
Nsg111
Nsg112
Nsg113
Nsg114
Nsg115
Nsg116
Nsg117
Nsg118
Nsg119
Nsg120
Nsg121
Nsg122
Nsg123
Nsg124
Nsg125
Nsg126
Nsg127
Nsg128
Nsg129
Nsg130
Nsg131
Nsg132
Nsg133
Nsg134
Nsg135
Nsg136
Nsg137
Nsg138
Nsg139
Nsg140
Nsg141
Nsg142
Nsg143
Nsg144
Nsg145
Nsg146
Nsg147
Nsg148
Nsg149
Nsg150
Nsg151
Nsg152
Nsg153
Nsg154
Nsg155
Nsg156
Nsg157
Nsg158
Nsg159
Nsg160
Nsg161
Nsg162
Nsg163
Nsg164
Nsg165
Nsg166
Nsg167
Nsg168
Nsg169
Nsg170
Nsg171
Nsg172
Nsg173
Nsg174
Nsg175
Nsg176
Nsg177
Nsg178
Nsg179
Nsg180
Nsg181
Nsg182
Nsg183
Nsg184
Nsg185
Nsg186
Nsg187
Nsg188
Nsg189
Nsg190
Nsg191
Nsg192
Nsg193
Nsg194
Nsg195
Nsg196
Nsg197
Nsg198
Nsg199
Nsg200
Nsg201
Nsg202
Nsg203
Nsg204
Nsg205
Nsg206
Nsg207
Nsg208
Nsg209
Nsg210
Nsg211
Nsg212
Nsg213
Nsg214
Nsg215
Nsg216
NssI1971
(dp227
g3
Nsg4
Nsg5
Nsg6
Nsg7
Nsg8
Nsg9
Nsg10
Nsg11
Nsg12
Nsg13
Nsg14
Nsg15
Nsg16
Nsg17
Nsg18
Nsg19
Nsg20
Nsg21
Nsg22
Nsg23
Nsg24
Nsg25
Nsg26
Nsg27
Nsg28
Nsg29
Nsg30
Nsg31
Nsg32
Nsg33
Nsg34
Nsg35
Nsg36
Nsg37
Nsg38
Nsg39
Nsg40
Nsg41
Nsg42
Nsg43
Nsg44
Nsg45
Nsg46
Nsg47
Nsg48
Nsg49
Nsg50
Nsg51
Nsg52
Nsg53
Nsg54
Nsg55
Nsg56
Nsg57
Nsg58
Nsg59
Nsg60
Nsg61
Nsg62
Nsg63
Nsg64
Nsg65
Nsg66
Nsg67
Nsg68
Nsg69
Nsg70
Nsg71
Nsg72
Nsg73
Nsg74
Nsg75
Nsg76
Nsg77
Nsg78
Nsg79
Nsg80
Nsg81
Nsg82
Nsg83
Nsg84
Nsg85
Nsg86
Nsg87
Nsg88
Nsg89
Nsg90
Nsg91
Nsg92
Nsg93
Nsg94
Nsg95
Nsg96
Nsg97
Nsg98
Nsg99
Nsg100
Nsg101
Nsg102
Nsg103
Nsg104
Nsg105
Nsg106
Nsg107
Nsg108
Nsg109
Nsg110
Nsg111
Nsg112
Nsg113
Nsg114
Nsg115
Nsg116
Nsg117
Nsg118
Nsg119
Nsg120
Nsg121
Nsg122
Nsg123
Nsg124
Nsg125
Nsg126
Nsg127
Nsg128
Nsg129
Nsg130
Nsg131
Nsg132
Nsg133
Nsg134
Nsg135
Nsg136
Nsg137
Nsg138
Nsg139
Nsg140
Nsg141
Nsg142
Nsg143
Nsg144
Nsg145
Nsg146
Nsg147
Nsg148
Nsg149
Nsg150
Nsg151
Nsg152
Nsg153
Nsg154
Nsg155
Nsg156
Nsg157
Nsg158
Nsg159
Nsg160
Nsg161
Nsg162
Nsg163
Nsg164
Nsg165
Nsg166
Nsg167
Nsg168
Nsg169
Nsg170
Nsg171
Nsg172
Nsg173
Nsg174
Nsg175
Nsg176
Nsg177
Nsg178
Nsg179
Nsg180
Nsg181
Nsg182
Nsg183
Nsg184
Nsg185
Nsg186
Nsg187
Nsg188
Nsg189
Nsg190
Nsg191
Nsg192
Nsg193
Nsg194
Nsg195
Nsg196
Nsg197
Nsg198
Nsg199
Nsg200
Nsg201
Nsg202
Nsg203
Nsg204
Nsg205
Nsg206
Nsg207
Nsg208
Nsg209
Nsg210
Nsg211
Nsg212
Nsg213
Nsg214
Nsg215
Nsg216
NssI1972
(dp228
g3
Nsg4
Nsg5
Nsg6
Nsg7
Nsg8
Nsg9
Nsg10
Nsg11
Nsg12
Nsg13
Nsg14
Nsg15
Nsg16
Nsg17
Nsg18
Nsg19
Nsg20
Nsg21
Nsg22
Nsg23
Nsg24
Nsg25
Nsg26
Nsg27
Nsg28
Nsg29
Nsg30
Nsg31
Nsg32
Nsg33
Nsg34
Nsg35
Nsg36
Nsg37
Nsg38
Nsg39
Nsg40
Nsg41
Nsg42
Nsg43
Nsg44
Nsg45
Nsg46
Nsg47
Nsg48
Nsg49
Nsg50
Nsg51
Nsg52
Nsg53
Nsg54
Nsg55
Nsg56
Nsg57
Nsg58
Nsg59
Nsg60
Nsg61
Nsg62
Nsg63
Nsg64
Nsg65
Nsg66
Nsg67
Nsg68
Nsg69
Nsg70
Nsg71
Nsg72
Nsg73
Nsg74
Nsg75
Nsg76
Nsg77
Nsg78
Nsg79
Nsg80
Nsg81
Nsg82
Nsg83
Nsg84
Nsg85
Nsg86
Nsg87
Nsg88
Nsg89
Nsg90
Nsg91
Nsg92
Nsg93
Nsg94
Nsg95
Nsg96
Nsg97
Nsg98
Nsg99
Nsg100
Nsg101
Nsg102
Nsg103
Nsg104
Nsg105
Nsg106
Nsg107
Nsg108
Nsg109
Nsg110
Nsg111
Nsg112
Nsg113
Nsg114
Nsg115
Nsg116
Nsg117
Nsg118
Nsg119
Nsg120
Nsg121
Nsg122
Nsg123
Nsg124
Nsg125
Nsg126
Nsg127
Nsg128
Nsg129
Nsg130
Nsg131
Nsg132
Nsg133
Nsg134
Nsg135
Nsg136
Nsg137
Nsg138
Nsg139
Nsg140
Nsg141
Nsg142
Nsg143
Nsg144
Nsg145
Nsg146
Nsg147
Nsg148
Nsg149
Nsg150
Nsg151
Nsg152
Nsg153
Nsg154
Nsg155
Nsg156
Nsg157
Nsg158
Nsg159
Nsg160
Nsg161
Nsg162
Nsg163
Nsg164
Nsg165
Nsg166
Nsg167
Nsg168
Nsg169
Nsg170
Nsg171
Nsg172
Nsg173
Nsg174
Nsg175
Nsg176
Nsg177
Nsg178
Nsg179
Nsg180
Nsg181
Nsg182
Nsg183
Nsg184
Nsg185
Nsg186
Nsg187
Nsg188
Nsg189
Nsg190
Nsg191
Nsg192
Nsg193
Nsg194
Nsg195
Nsg196
Nsg197
Nsg198
Nsg199
Nsg200
Nsg201
Nsg202
Nsg203
Nsg204
Nsg205
Nsg206
Nsg207
Nsg208
Nsg209
Nsg210
Nsg211
Nsg212
Nsg213
Nsg214
Nsg215
Nsg216
NssI1973
(dp229
g3
Nsg4
Nsg5
Nsg6
Nsg7
Nsg8
Nsg9
Nsg10
Nsg11
Nsg12
Nsg13
Nsg14
Nsg15
Nsg16
Nsg17
Nsg18
Nsg19
Nsg20
Nsg21
Nsg22
Nsg23
Nsg24
Nsg25
Nsg26
Nsg27
Nsg28
Nsg29
Nsg30
Nsg31
Nsg32
Nsg33
Nsg34
Nsg35
Nsg36
Nsg37
Nsg38
Nsg39
Nsg40
Nsg41
Nsg42
Nsg43
Nsg44
Nsg45
Nsg46
Nsg47
Nsg48
Nsg49
Nsg50
Nsg51
Nsg52
Nsg53
Nsg54
Nsg55
Nsg56
Nsg57
Nsg58
Nsg59
Nsg60
Nsg61
Nsg62
Nsg63
Nsg64
Nsg65
Nsg66
Nsg67
Nsg68
Nsg69
Nsg70
Nsg71
Nsg72
Nsg73
Nsg74
Nsg75
Nsg76
Nsg77
Nsg78
Nsg79
Nsg80
Nsg81
Nsg82
Nsg83
Nsg84
Nsg85
Nsg86
Nsg87
Nsg88
Nsg89
Nsg90
Nsg91
Nsg92
Nsg93
Nsg94
Nsg95
Nsg96
Nsg97
Nsg98
Nsg99
Nsg100
Nsg101
Nsg102
Nsg103
Nsg104
Nsg105
Nsg106
Nsg107
Nsg108
Nsg109
Nsg110
Nsg111
Nsg112
Nsg113
Nsg114
Nsg115
Nsg116
Nsg117
Nsg118
Nsg119
Nsg120
Nsg121
Nsg122
Nsg123
Nsg124
Nsg125
Nsg126
Nsg127
Nsg128
Nsg129
Nsg130
Nsg131
Nsg132
Nsg133
Nsg134
Nsg135
Nsg136
Nsg137
Nsg138
Nsg139
Nsg140
Nsg141
Nsg142
Nsg143
Nsg144
Nsg145
Nsg146
Nsg147
Nsg148
Nsg149
Nsg150
Nsg151
Nsg152
Nsg153
Nsg154
Nsg155
Nsg156
Nsg157
Nsg158
Nsg159
Nsg160
Nsg161
Nsg162
Nsg163
Nsg164
Nsg165
Nsg166
Nsg167
Nsg168
Nsg169
Nsg170
Nsg171
Nsg172
Nsg173
Nsg174
Nsg175
Nsg176
Nsg177
Nsg178
Nsg179
Nsg180
Nsg181
Nsg182
Nsg183
Nsg184
Nsg185
Nsg186
Nsg187
Nsg188
Nsg189
Nsg190
Nsg191
Nsg192
Nsg193
Nsg194
Nsg195
Nsg196
Nsg197
Nsg198
Nsg199
Nsg200
Nsg201
Nsg202
Nsg203
Nsg204
Nsg205
Nsg206
Nsg207
Nsg208
Nsg209
Nsg210
Nsg211
Nsg212
Nsg213
Nsg214
Nsg215
Nsg216
NssI1974
(dp230
g3
Nsg4
Nsg5
Nsg6
Nsg7
Nsg8
Nsg9
Nsg10
Nsg11
Nsg12
Nsg13
Nsg14
Nsg15
Nsg16
Nsg17
Nsg18
Nsg19
Nsg20
Nsg21
Nsg22
Nsg23
Nsg24
Nsg25
Nsg26
Nsg27
Nsg28
Nsg29
Nsg30
Nsg31
Nsg32
Nsg33
Nsg34
Nsg35
Nsg36
Nsg37
Nsg38
Nsg39
Nsg40
Nsg41
Nsg42
Nsg43
Nsg44
Nsg45
Nsg46
Nsg47
Nsg48
Nsg49
Nsg50
Nsg51
Nsg52
Nsg53
Nsg54
Nsg55
Nsg56
Nsg57
Nsg58
Nsg59
Nsg60
Nsg61
Nsg62
Nsg63
Nsg64
Nsg65
Nsg66
Nsg67
Nsg68
Nsg69
Nsg70
Nsg71
Nsg72
Nsg73
Nsg74
Nsg75
Nsg76
Nsg77
Nsg78
Nsg79
Nsg80
Nsg81
Nsg82
Nsg83
Nsg84
Nsg85
Nsg86
Nsg87
Nsg88
Nsg89
Nsg90
Nsg91
Nsg92
Nsg93
Nsg94
Nsg95
Nsg96
Nsg97
Nsg98
Nsg99
Nsg100
Nsg101
Nsg102
Nsg103
Nsg104
Nsg105
Nsg106
Nsg107
Nsg108
Nsg109
Nsg110
Nsg111
Nsg112
Nsg113
Nsg114
Nsg115
Nsg116
Nsg117
Nsg118
Nsg119
Nsg120
Nsg121
Nsg122
Nsg123
Nsg124
Nsg125
Nsg126
Nsg127
Nsg128
Nsg129
Nsg130
Nsg131
Nsg132
Nsg133
Nsg134
Nsg135
Nsg136
Nsg137
Nsg138
Nsg139
Nsg140
Nsg141
Nsg142
Nsg143
Nsg144
Nsg145
Nsg146
Nsg147
Nsg148
Nsg149
Nsg150
Nsg151
Nsg152
Nsg153
Nsg154
Nsg155
Nsg156
Nsg157
Nsg158
Nsg159
Nsg160
Nsg161
Nsg162
Nsg163
Nsg164
Nsg165
Nsg166
Nsg167
Nsg168
Nsg169
Nsg170
Nsg171
Nsg172
Nsg173
Nsg174
Nsg175
Nsg176
Nsg177
Nsg178
Nsg179
Nsg180
Nsg181
Nsg182
Nsg183
Nsg184
Nsg185
Nsg186
Nsg187
Nsg188
Nsg189
Nsg190
Nsg191
Nsg192
Nsg193
Nsg194
Nsg195
Nsg196
Nsg197
Nsg198
Nsg199
Nsg200
Nsg201
Nsg202
Nsg203
Nsg204
Nsg205
Nsg206
Nsg207
Nsg208
Nsg209
Nsg210
Nsg211
Nsg212
Nsg213
Nsg214
Nsg215
Nsg216
NssI1975
(dp231
g3
Nsg4
Nsg5
Nsg6
Nsg7
Nsg8
Nsg9
Nsg10
Nsg11
Nsg12
Nsg13
Nsg14
Nsg15
Nsg16
Nsg17
Nsg18
Nsg19
Nsg20
Nsg21
Nsg22
Nsg23
Nsg24
Nsg25
Nsg26
Nsg27
Nsg28
Nsg29
Nsg30
Nsg31
Nsg32
Nsg33
Nsg34
Nsg35
Nsg36
Nsg37
Nsg38
Nsg39
Nsg40
Nsg41
Nsg42
Nsg43
Nsg44
Nsg45
Nsg46
Nsg47
Nsg48
Nsg49
Nsg50
Nsg51
Nsg52
Nsg53
Nsg54
Nsg55
Nsg56
Nsg57
Nsg58
Nsg59
Nsg60
Nsg61
Nsg62
Nsg63
Nsg64
Nsg65
Nsg66
Nsg67
Nsg68
Nsg69
Nsg70
Nsg71
Nsg72
Nsg73
Nsg74
Nsg75
Nsg76
Nsg77
Nsg78
Nsg79
Nsg80
Nsg81
Nsg82
Nsg83
Nsg84
Nsg85
Nsg86
Nsg87
Nsg88
Nsg89
Nsg90
Nsg91
Nsg92
Nsg93
Nsg94
Nsg95
Nsg96
Nsg97
Nsg98
Nsg99
Nsg100
Nsg101
Nsg102
Nsg103
Nsg104
Nsg105
Nsg106
Nsg107
Nsg108
Nsg109
Nsg110
Nsg111
Nsg112
Nsg113
Nsg114
Nsg115
Nsg116
Nsg117
Nsg118
Nsg119
Nsg120
Nsg121
Nsg122
Nsg123
Nsg124
Nsg125
Nsg126
Nsg127
Nsg128
Nsg129
Nsg130
Nsg131
Nsg132
Nsg133
Nsg134
Nsg135
Nsg136
Nsg137
Nsg138
Nsg139
Nsg140
Nsg141
Nsg142
Nsg143
Nsg144
Nsg145
Nsg146
Nsg147
Nsg148
Nsg149
Nsg150
Nsg151
Nsg152
Nsg153
Nsg154
Nsg155
Nsg156
Nsg157
Nsg158
Nsg159
Nsg160
Nsg161
Nsg162
Nsg163
Nsg164
Nsg165
Nsg166
Nsg167
Nsg168
Nsg169
Nsg170
Nsg171
Nsg172
Nsg173
Nsg174
Nsg175
Nsg176
Nsg177
Nsg178
Nsg179
Nsg180
Nsg181
Nsg182
Nsg183
Nsg184
Nsg185
Nsg186
Nsg187
Nsg188
Nsg189
Nsg190
Nsg191
Nsg192
Nsg193
Nsg194
Nsg195
Nsg196
Nsg197
Nsg198
Nsg199
Nsg200
Nsg201
Nsg202
Nsg203
Nsg204
Nsg205
Nsg206
Nsg207
Nsg208
Nsg209
Nsg210
Nsg211
Nsg212
Nsg213
Nsg214
Nsg215
Nsg216
NssI1976
(dp232
g3
Nsg4
Nsg5
Nsg6
Nsg7
Nsg8
Nsg9
Nsg10
Nsg11
Nsg12
Nsg13
Nsg14
Nsg15
Nsg16
Nsg17
Nsg18
Nsg19
Nsg20
Nsg21
Nsg22
Nsg23
Nsg24
Nsg25
Nsg26
Nsg27
Nsg28
Nsg29
Nsg30
Nsg31
Nsg32
Nsg33
Nsg34
Nsg35
Nsg36
Nsg37
Nsg38
Nsg39
Nsg40
Nsg41
Nsg42
Nsg43
Nsg44
Nsg45
Nsg46
Nsg47
Nsg48
Nsg49
Nsg50
Nsg51
Nsg52
Nsg53
Nsg54
Nsg55
Nsg56
Nsg57
Nsg58
Nsg59
Nsg60
Nsg61
Nsg62
Nsg63
Nsg64
Nsg65
Nsg66
Nsg67
Nsg68
Nsg69
Nsg70
Nsg71
Nsg72
Nsg73
Nsg74
Nsg75
Nsg76
Nsg77
Nsg78
Nsg79
Nsg80
Nsg81
Nsg82
Nsg83
Nsg84
Nsg85
Nsg86
Nsg87
Nsg88
Nsg89
Nsg90
Nsg91
Nsg92
Nsg93
Nsg94
Nsg95
Nsg96
Nsg97
Nsg98
Nsg99
Nsg100
Nsg101
Nsg102
Nsg103
Nsg104
Nsg105
Nsg106
Nsg107
Nsg108
Nsg109
Nsg110
Nsg111
Nsg112
Nsg113
Nsg114
Nsg115
Nsg116
Nsg117
Nsg118
Nsg119
Nsg120
Nsg121
Nsg122
Nsg123
Nsg124
Nsg125
Nsg126
Nsg127
Nsg128
Nsg129
Nsg130
Nsg131
Nsg132
Nsg133
Nsg134
Nsg135
Nsg136
Nsg137
Nsg138
Nsg139
Nsg140
Nsg141
Nsg142
Nsg143
Nsg144
Nsg145
Nsg146
Nsg147
Nsg148
Nsg149
Nsg150
Nsg151
Nsg152
Nsg153
Nsg154
Nsg155
Nsg156
Nsg157
Nsg158
Nsg159
Nsg160
Nsg161
Nsg162
Nsg163
Nsg164
Nsg165
Nsg166
Nsg167
Nsg168
Nsg169
Nsg170
Nsg171
Nsg172
Nsg173
Nsg174
Nsg175
Nsg176
Nsg177
Nsg178
Nsg179
Nsg180
Nsg181
Nsg182
Nsg183
Nsg184
Nsg185
Nsg186
Nsg187
Nsg188
Nsg189
Nsg190
Nsg191
Nsg192
Nsg193
Nsg194
Nsg195
Nsg196
Nsg197
Nsg198
Nsg199
Nsg200
Nsg201
Nsg202
Nsg203
Nsg204
Nsg205
Nsg206
Nsg207
Nsg208
Nsg209
Nsg210
Nsg211
Nsg212
Nsg213
Nsg214
Nsg215
Nsg216
NssI1977
(dp233
g3
Nsg4
Nsg5
Nsg6
Nsg7
Nsg8
Nsg9
Nsg10
Nsg11
Nsg12
Nsg13
Nsg14
Nsg15
Nsg16
Nsg17
Nsg18
Nsg19
Nsg20
Nsg21
Nsg22
Nsg23
Nsg24
Nsg25
Nsg26
Nsg27
Nsg28
Nsg29
Nsg30
Nsg31
Nsg32
Nsg33
Nsg34
Nsg35
Nsg36
Nsg37
Nsg38
Nsg39
Nsg40
Nsg41
Nsg42
Nsg43
Nsg44
Nsg45
Nsg46
Nsg47
Nsg48
Nsg49
Nsg50
Nsg51
Nsg52
Nsg53
Nsg54
Nsg55
Nsg56
Nsg57
Nsg58
Nsg59
Nsg60
Nsg61
Nsg62
Nsg63
Nsg64
Nsg65
Nsg66
Nsg67
Nsg68
Nsg69
Nsg70
Nsg71
Nsg72
Nsg73
Nsg74
Nsg75
Nsg76
Nsg77
Nsg78
Nsg79
Nsg80
Nsg81
Nsg82
Nsg83
Nsg84
Nsg85
Nsg86
Nsg87
Nsg88
Nsg89
Nsg90
Nsg91
Nsg92
Nsg93
Nsg94
Nsg95
Nsg96
Nsg97
Nsg98
Nsg99
Nsg100
Nsg101
Nsg102
Nsg103
Nsg104
Nsg105
Nsg106
Nsg107
Nsg108
Nsg109
Nsg110
Nsg111
Nsg112
Nsg113
Nsg114
Nsg115
Nsg116
Nsg117
Nsg118
Nsg119
Nsg120
Nsg121
Nsg122
Nsg123
Nsg124
Nsg125
Nsg126
Nsg127
Nsg128
Nsg129
Nsg130
Nsg131
Nsg132
Nsg133
Nsg134
Nsg135
Nsg136
Nsg137
Nsg138
Nsg139
Nsg140
Nsg141
Nsg142
Nsg143
Nsg144
Nsg145
Nsg146
Nsg147
Nsg148
Nsg149
Nsg150
Nsg151
Nsg152
Nsg153
Nsg154
Nsg155
Nsg156
Nsg157
Nsg158
Nsg159
Nsg160
Nsg161
Nsg162
Nsg163
Nsg164
Nsg165
Nsg166
Nsg167
Nsg168
Nsg169
Nsg170
Nsg171
Nsg172
Nsg173
Nsg174
Nsg175
Nsg176
Nsg177
Nsg178
Nsg179
Nsg180
Nsg181
Nsg182
Nsg183
Nsg184
Nsg185
Nsg186
Nsg187
Nsg188
Nsg189
Nsg190
Nsg191
Nsg192
Nsg193
Nsg194
Nsg195
Nsg196
Nsg197
Nsg198
Nsg199
Nsg200
Nsg201
Nsg202
Nsg203
Nsg204
Nsg205
Nsg206
Nsg207
Nsg208
Nsg209
Nsg210
Nsg211
Nsg212
Nsg213
Nsg214
Nsg215
Nsg216
NssI1978
(dp234
g3
Nsg4
Nsg5
Nsg6
Nsg7
Nsg8
Nsg9
Nsg10
Nsg11
Nsg12
Nsg13
Nsg14
Nsg15
Nsg16
Nsg17
Nsg18
Nsg19
Nsg20
Nsg21
Nsg22
Nsg23
Nsg24
Nsg25
Nsg26
Nsg27
Nsg28
Nsg29
Nsg30
Nsg31
Nsg32
Nsg33
Nsg34
Nsg35
Nsg36
Nsg37
Nsg38
Nsg39
Nsg40
Nsg41
Nsg42
Nsg43
Nsg44
Nsg45
Nsg46
Nsg47
Nsg48
Nsg49
Nsg50
Nsg51
Nsg52
Nsg53
Nsg54
Nsg55
Nsg56
Nsg57
Nsg58
Nsg59
Nsg60
Nsg61
Nsg62
Nsg63
Nsg64
Nsg65
Nsg66
Nsg67
Nsg68
Nsg69
Nsg70
Nsg71
Nsg72
Nsg73
Nsg74
Nsg75
Nsg76
Nsg77
Nsg78
Nsg79
Nsg80
Nsg81
Nsg82
Nsg83
Nsg84
Nsg85
Nsg86
Nsg87
Nsg88
Nsg89
Nsg90
Nsg91
Nsg92
Nsg93
Nsg94
Nsg95
Nsg96
Nsg97
Nsg98
Nsg99
Nsg100
Nsg101
Nsg102
Nsg103
Nsg104
Nsg105
Nsg106
Nsg107
Nsg108
Nsg109
Nsg110
Nsg111
Nsg112
Nsg113
Nsg114
Nsg115
Nsg116
Nsg117
Nsg118
Nsg119
Nsg120
Nsg121
Nsg122
Nsg123
Nsg124
Nsg125
Nsg126
Nsg127
Nsg128
Nsg129
Nsg130
Nsg131
Nsg132
Nsg133
Nsg134
Nsg135
Nsg136
Nsg137
Nsg138
Nsg139
Nsg140
Nsg141
Nsg142
Nsg143
Nsg144
Nsg145
Nsg146
Nsg147
Nsg148
Nsg149
Nsg150
Nsg151
Nsg152
Nsg153
Nsg154
Nsg155
Nsg156
Nsg157
Nsg158
Nsg159
Nsg160
Nsg161
Nsg162
Nsg163
Nsg164
Nsg165
Nsg166
Nsg167
Nsg168
Nsg169
Nsg170
Nsg171
Nsg172
Nsg173
Nsg174
Nsg175
Nsg176
Nsg177
Nsg178
Nsg179
Nsg180
Nsg181
Nsg182
Nsg183
Nsg184
Nsg185
Nsg186
Nsg187
Nsg188
Nsg189
Nsg190
Nsg191
Nsg192
Nsg193
Nsg194
Nsg195
Nsg196
Nsg197
Nsg198
Nsg199
Nsg200
Nsg201
Nsg202
Nsg203
Nsg204
Nsg205
Nsg206
Nsg207
Nsg208
Nsg209
Nsg210
Nsg211
Nsg212
Nsg213
Nsg214
Nsg215
Nsg216
NssI1979
(dp235
g3
Nsg4
Nsg5
Nsg6
Nsg7
Nsg8
Nsg9
Nsg10
Nsg11
Nsg12
Nsg13
Nsg14
Nsg15
Nsg16
Nsg17
Nsg18
Nsg19
Nsg20
Nsg21
Nsg22
Nsg23
Nsg24
Nsg25
Nsg26
Nsg27
Nsg28
Nsg29
Nsg30
Nsg31
Nsg32
Nsg33
Nsg34
Nsg35
Nsg36
Nsg37
Nsg38
Nsg39
Nsg40
Nsg41
Nsg42
Nsg43
Nsg44
Nsg45
Nsg46
Nsg47
Nsg48
Nsg49
Nsg50
Nsg51
Nsg52
Nsg53
Nsg54
Nsg55
Nsg56
Nsg57
Nsg58
Nsg59
Nsg60
Nsg61
Nsg62
Nsg63
Nsg64
Nsg65
Nsg66
Nsg67
Nsg68
Nsg69
Nsg70
Nsg71
Nsg72
Nsg73
Nsg74
Nsg75
Nsg76
Nsg77
Nsg78
Nsg79
Nsg80
Nsg81
Nsg82
Nsg83
Nsg84
Nsg85
Nsg86
Nsg87
Nsg88
Nsg89
Nsg90
Nsg91
Nsg92
Nsg93
Nsg94
Nsg95
Nsg96
Nsg97
Nsg98
Nsg99
Nsg100
Nsg101
Nsg102
Nsg103
Nsg104
Nsg105
Nsg106
Nsg107
Nsg108
Nsg109
Nsg110
Nsg111
Nsg112
Nsg113
Nsg114
Nsg115
Nsg116
Nsg117
Nsg118
Nsg119
Nsg120
Nsg121
Nsg122
Nsg123
Nsg124
Nsg125
Nsg126
Nsg127
Nsg128
Nsg129
Nsg130
Nsg131
Nsg132
Nsg133
Nsg134
Nsg135
Nsg136
Nsg137
Nsg138
Nsg139
Nsg140
Nsg141
Nsg142
Nsg143
Nsg144
Nsg145
Nsg146
Nsg147
Nsg148
Nsg149
Nsg150
Nsg151
Nsg152
Nsg153
Nsg154
Nsg155
Nsg156
Nsg157
Nsg158
Nsg159
Nsg160
Nsg161
Nsg162
Nsg163
Nsg164
Nsg165
Nsg166
Nsg167
Nsg168
Nsg169
Nsg170
Nsg171
Nsg172
Nsg173
Nsg174
Nsg175
Nsg176
Nsg177
Nsg178
Nsg179
Nsg180
Nsg181
Nsg182
Nsg183
Nsg184
Nsg185
Nsg186
Nsg187
Nsg188
Nsg189
Nsg190
Nsg191
Nsg192
Nsg193
Nsg194
Nsg195
Nsg196
Nsg197
Nsg198
Nsg199
Nsg200
Nsg201
Nsg202
Nsg203
Nsg204
Nsg205
Nsg206
Nsg207
Nsg208
Nsg209
Nsg210
Nsg211
Nsg212
Nsg213
Nsg214
Nsg215
Nsg216
NssI1980
(dp236
g3
F23070.397819999998
sg4
Nsg5
Nsg6
Nsg7
Nsg8
Nsg9
F28493.300879999999
sg10
Nsg11
Nsg12
F2298.288102
sg13
F10075.42554
sg14
F3779.035629
sg15
F26044.900180000001
sg16
F613.27364839999996
sg17
F992.75332749999995
sg18
F33902.942660000001
sg19
F17834.50575
sg20
Nsg21
Nsg22
Nsg23
Nsg24
F3872.9528230000001
sg25
Nsg26
F39982.68189
sg27
Nsg28
F3931.3110109999998
sg29
F4290.2560510000003
sg30
F2950.746161
sg31
F4002.4139890000001
sg32
F1263.084194
sg33
Nsg34
F1224.0074669999999
sg35
F9818.0948410000001
sg36
Nsg37
F4241.8224799999998
sg38
F17006.715029999999
sg39
Nsg40
F17390.907449999999
sg41
F5250.2939679999999
sg42
Nsg43
Nsg44
Nsg45
F123262.9901
sg46
Nsg47
F7808.5907859999998
sg48
F879.40451700000006
sg49
Nsg50
F833.1756077
sg51
F1374.92893
sg52
Nsg53
F5959.1522640000003
sg54
Nsg55
F11594.136979999999
sg56
F676.80752659999996
sg57
F1967.318499
sg58
Nsg59
F5543.5722470000001
sg60
Nsg61
Nsg62
F20264.495859999999
sg63
F3307.6801230000001
sg64
Nsg65
F4928.4347959999996
sg66
Nsg67
F6083.2485459999998
sg68
F2765.8663219999999
sg69
F1645.4041970000001
sg70
F11317.398300000001
sg71
F26204.784790000002
sg72
F2619.9555650000002
sg73
Nsg74
F1134.067853
sg75
Nsg76
F2006.727844
sg77
Nsg78
F1194.4151999999999
sg79
F523.95025390000001
sg80
Nsg81
Nsg82
F3765.838107
sg83
Nsg84
F21139.012569999999
sg85
Nsg86
F17857.731749999999
sg87
Nsg88
Nsg89
F955.45132190000004
sg90
F3728.9071359999998
sg91
Nsg92
Nsg93
F750.08586230000003
sg94
Nsg95
Nsg96
F5830.317333
sg97
F25509.517
sg98
F7624.3520870000002
sg99
Nsg100
F2403.6841850000001
sg101
F8762.6259869999994
sg102
F3291.0019929999999
sg103
F11256.99987
sg104
F80588.015239999993
sg105
Nsg106
F4866.9097620000002
sg107
F20768.790570000001
sg108
Nsg109
F434.79577799999998
sg110
Nsg111
Nsg112
F11346.53823
sg113
F940.95338100000004
sg114
Nsg115
F7566.5179589999998
sg116
Nsg117
Nsg118
F6558.364611
sg119
F6377.7363640000003
sg120
F27608.304919999999
sg121
F992.97810930000003
sg122
Nsg123
Nsg124
Nsg125
Nsg126
F5698.6007300000001
sg127
Nsg128
F19770.024789999999
sg129
F6358.196927
sg130
F4371.7572879999998
sg131
Nsg132
F5564.0756259999998
sg133
Nsg134
F5653.8060439999999
sg135
Nsg136
F20792.884910000001
sg137
F2088.4348030000001
sg138
Nsg139
F3342.0157439999998
sg140
F812.00057649999997
sg141
F6858.6901449999996
sg142
F20789.884620000001
sg143
F2826.9682849999999
sg144
F3865.054928
sg145
F12008.414269999999
sg146
F2334.6255780000001
sg147
Nsg148
Nsg149
F905.43417750000003
sg150
F2220.6002469999999
sg151
Nsg152
F4034.0993079999998
sg153
Nsg154
Nsg155
F650.42653740000003
sg156
Nsg157
Nsg158
F20361.5736
sg159
F10238.48762
sg160
F13945.11231
sg161
Nsg162
Nsg163
F815.20262869999999
sg164
F7331.0923419999999
sg165
F15368.38161
sg166
F5296.8621910000002
sg167
F604.30683380000005
sg168
F3434.3855440000002
sg169
F14938.804980000001
sg170
F1288.760935
sg171
F18814.442210000001
sg172
Nsg173
Nsg174
F1063.094462
sg175
F566.52397210000004
sg176
F15115.978150000001
sg177
F10430.60406
sg178
F22271.480019999999
sg179
Nsg180
F6587.884685
sg181
Nsg182
Nsg183
F7187.7330970000003
sg184
F15027.819090000001
sg185
F1322.8960629999999
sg186
F21846.81565
sg187
F1532.1929399999999
sg188
F1533.101758
sg189
F1927.029133
sg190
F688.5191863
sg191
F15309.96081
sg192
Nsg193
F20860.6754
sg194
Nsg195
Nsg196
Nsg197
Nsg198
F1553.051935
sg199
F8271.7665249999991
sg200
Nsg201
F2058.5695420000002
sg202
F2819.7287930000002
sg203
Nsg204
Nsg205
F4046.7965920000001
sg206
F2748.150165
sg207
F778.69404759999998
sg208
Nsg209
F3432.5857470000001
sg210
F17381.721300000001
sg211
F1648.949374
sg212
Nsg213
F17042.862420000001
sg214
F4047.2434899999998
sg215
Nsg216
F1205.667823
ssI1981
(dp237
g3
F23584.17483
sg4
Nsg5
Nsg6
Nsg7
Nsg8
Nsg9
F28791.63377
sg10
F599.72987579999995
sg11
Nsg12
F2558.6277359999999
sg13
F9358.9508100000003
sg14
F3707.4593060000002
sg15
F23122.567609999998
sg16
F624.10661700000003
sg17
F930.4367029
sg18
F33319.76554
sg19
F18442.66317
sg20
Nsg21
Nsg22
Nsg23
Nsg24
F3803.1736139999998
sg25
Nsg26
F30834.864460000001
sg27
Nsg28
F3959.7904749999998
sg29
F4368.9830009999996
sg30
F3370.199196
sg31
F4482.390711
sg32
F1194.8316150000001
sg33
Nsg34
F1276.7443559999999
sg35
F10861.77831
sg36
Nsg37
F4397.1013489999996
sg38
F17357.551589999999
sg39
Nsg40
F18106.28183
sg41
F5315.851439
sg42
Nsg43
Nsg44
Nsg45
F120037.70570000001
sg46
Nsg47
F7878.415884
sg48
F910.84026870000002
sg49
Nsg50
F816.87783560000003
sg51
F1373.420856
sg52
Nsg53
F6106.6776840000002
sg54
Nsg55
F11155.917149999999
sg56
F683.39031939999995
sg57
F1977.446441
sg58
Nsg59
F5794.1859020000002
sg60
Nsg61
Nsg62
F20361.573980000001
sg63
F3499.1378949999998
sg64
Nsg65
F4867.5706419999997
sg66
Nsg67
F6360.6715000000004
sg68
F2810.4974969999998
sg69
F1391.4398610000001
sg70
F10271.61536
sg71
F26518.91201
sg72
F2594.2079370000001
sg73
Nsg74
F1213.972757
sg75
Nsg76
F2282.0487560000001
sg77
Nsg78
F1119.4618829999999
sg79
F544.18014200000005
sg80
Nsg81
Nsg82
F3838.0137880000002
sg83
Nsg84
F19255.71443
sg85
F2597.9318939999998
sg86
F18010.493480000001
sg87
Nsg88
Nsg89
F914.10730450000005
sg90
F3895.296938
sg91
Nsg92
Nsg93
F702.53558910000004
sg94
Nsg95
Nsg96
F6095.6634700000004
sg97
F25902.312330000001
sg98
F7623.6047010000002
sg99
Nsg100
F2435.83637
sg101
F9010.6134189999993
sg102
F3462.8680300000001
sg103
F11350.30077
sg104
F62594.982799999998
sg105
Nsg106
F5077.7015760000004
sg107
F20686.026129999998
sg108
Nsg109
F445.66889900000001
sg110
Nsg111
Nsg112
F11671.02348
sg113
F920.46926870000004
sg114
Nsg115
F7067.0689599999996
sg116
Nsg117
Nsg118
F7000.0598799999998
sg119
F6062.6370850000003
sg120
F27375.3825
sg121
F1067.3313680000001
sg122
Nsg123
Nsg124
Nsg125
Nsg126
F5731.0934509999997
sg127
Nsg128
F20121.90323
sg129
F6336.3224950000003
sg130
F3854.2723139999998
sg131
Nsg132
F5581.8635489999997
sg133
Nsg134
F5833.1336890000002
sg135
Nsg136
F20735.36061
sg137
F1973.4420700000001
sg138
Nsg139
F3297.233894
sg140
F817.49550680000004
sg141
F7160.9820950000003
sg142
F20611.352210000001
sg143
F2843.0854399999998
sg144
F3801.7544119999998
sg145
F12097.37278
sg146
F2210.484203
sg147
Nsg148
F1995.2153209999999
sg149
F1043.0204630000001
sg150
F2304.323261
sg151
Nsg152
F3997.9943739999999
sg153
Nsg154
Nsg155
F642.80886039999996
sg156
Nsg157
Nsg158
F20296.03397
sg159
F10892.459059999999
sg160
F14890.606320000001
sg161
Nsg162
Nsg163
F833.10443110000006
sg164
F7695.0116580000004
sg165
F15225.40321
sg166
F5296.3737359999996
sg167
F657.5417976
sg168
F3563.6631149999998
sg169
F14406.50253
sg170
F1134.1371670000001
sg171
F18950.514350000001
sg172
Nsg173
F938.80542089999994
sg174
F1104.75089
sg175
F599.43509700000004
sg176
F15950.89134
sg177
F10697.09096
sg178
F21945.881460000001
sg179
Nsg180
F6577.8314899999996
sg181
Nsg182
Nsg183
F6569.5887659999999
sg184
F15489.87493
sg185
F1398.644313
sg186
F22520.251219999998
sg187
F1574.2659020000001
sg188
F1568.713591
sg189
F1870.145769
sg190
F634.87910529999999
sg191
F15735.383
sg192
Nsg193
F20939.162130000001
sg194
Nsg195
Nsg196
Nsg197
Nsg198
F1630.511898
sg199
F8595.3743599999998
sg200
Nsg201
F2092.7823450000001
sg202
F2802.8519019999999
sg203
Nsg204
Nsg205
F4158.4331069999998
sg206
F2815.5631119999998
sg207
F775.12667550000003
sg208
Nsg209
F3610.8039760000001
sg210
F17164.295429999998
sg211
F1643.619283
sg212
Nsg213
F16628.301439999999
sg214
F4268.5888539999996
sg215
Nsg216
F1208.4742189999999
ssI1982
(dp238
g3
F22635.368589999998
sg4
Nsg5
Nsg6
Nsg7
Nsg8
Nsg9
F28249.09086
sg10
F588.40991469999994
sg11
Nsg12
F2515.604182
sg13
F8760.2107209999995
sg14
F3486.1031499999999
sg15
F24127.197980000001
sg16
F667.1779646
sg17
F837.80278680000004
sg18
F27796.319869999999
sg19
F18936.471730000001
sg20
Nsg21
Nsg22
Nsg23
Nsg24
F3578.9992900000002
sg25
Nsg26
F25817.63363
sg27
Nsg28
F4085.52331
sg29
F3830.9255910000002
sg30
F4044.409036
sg31
F4680.6278929999999
sg32
F1125.826388
sg33
Nsg34
F1314.3313350000001
sg35
F11460.19353
sg36
Nsg37
F4441.0900879999999
sg38
F16326.067349999999
sg39
Nsg40
F18032.61851
sg41
F5332.6270100000002
sg42
Nsg43
F2477.9423120000001
sg44
Nsg45
F105665.5524
sg46
Nsg47
F7063.3923629999999
sg48
F921.08346819999997
sg49
Nsg50
F815.84910030000003
sg51
F1341.9031970000001
sg52
Nsg53
F6178.0662050000001
sg54
Nsg55
F10599.85259
sg56
F680.95807909999996
sg57
F1876.625233
sg58
Nsg59
F6123.2611479999996
sg60
Nsg61
Nsg62
F20742.761910000001
sg63
F3450.6339069999999
sg64
Nsg65
F4746.5138569999999
sg66
Nsg67
F6171.92688
sg68
F3038.1049499999999
sg69
F1352.966191
sg70
F10056.06162
sg71
F26454.718980000001
sg72
F2488.5959149999999
sg73
Nsg74
F1207.6789679999999
sg75
Nsg76
F2384.3129859999999
sg77
Nsg78
F1043.2745379999999
sg79
F585.02132210000002
sg80
Nsg81
Nsg82
F3815.4932899999999
sg83
Nsg84
F17257.531319999998
sg85
F2714.4252759999999
sg86
F18455.96819
sg87
Nsg88
Nsg89
F955.47317999999996
sg90
F4061.2249270000002
sg91
Nsg92
Nsg93
F655.97329109999998
sg94
Nsg95
Nsg96
F6219.5452830000004
sg97
F25148.49092
sg98
F7893.298417
sg99
Nsg100
F2614.2107649999998
sg101
F8753.8725350000004
sg102
F3599.882807
sg103
F11892.22251
sg104
F63162.180500000002
sg105
Nsg106
F5244.9306509999997
sg107
F21073.664079999999
sg108
Nsg109
F405.47991680000001
sg110
F567.96309689999998
sg111
Nsg112
F12009.68547
sg113
F909.80990099999997
sg114
Nsg115
F6944.9572900000003
sg116
Nsg117
Nsg118
F7211.5063989999999
sg119
F5466.2924059999996
sg120
F27662.357199999999
sg121
F1077.92542
sg122
Nsg123
Nsg124
Nsg125
Nsg126
F5546.5069540000004
sg127
Nsg128
F20427.911540000001
sg129
F6522.6982930000004
sg130
F3558.9673680000001
sg131
Nsg132
F5452.122969
sg133
Nsg134
F5149.8135030000003
sg135
Nsg136
F20864.402819999999
sg137
F2060.4723450000001
sg138
Nsg139
F3203.3627080000001
sg140
F838.47263899999996
sg141
F7242.7298019999998
sg142
F21392.56797
sg143
F2864.9983120000002
sg144
F4204.8160820000003
sg145
F12280.39316
sg146
F2358.7982940000002
sg147
Nsg148
F2107.9952469999998
sg149
F1064.2940249999999
sg150
F2380.3934640000002
sg151
Nsg152
F4081.6693460000001
sg153
Nsg154
Nsg155
F661.68108359999997
sg156
Nsg157
Nsg158
F20526.44598
sg159
F10602.36615
sg160
F15089.38473
sg161
Nsg162
Nsg163
F823.6195639
sg164
F7801.5411860000004
sg165
F15333.01348
sg166
F5228.9296780000004
sg167
F630.1496674
sg168
F3264.1044630000001
sg169
F13625.228090000001
sg170
F1085.865853
sg171
F19014.799230000001
sg172
Nsg173
F990.79543260000003
sg174
F1131.855611
sg175
F607.53498390000004
sg176
F16360.82473
sg177
F10709.268040000001
sg178
F21574.427609999999
sg179
F16955.113990000002
sg180
F6434.871502
sg181
Nsg182
Nsg183
F7149.0009360000004
sg184
F15476.64674
sg185
F1382.8659970000001
sg186
F22700.017380000001
sg187
F1480.8393140000001
sg188
F1645.829937
sg189
F1826.11958
sg190
F635.0949875
sg191
F16071.68181
sg192
Nsg193
F20876.332539999999
sg194
Nsg195
Nsg196
Nsg197
Nsg198
F1659.0415170000001
sg199
F8756.8638499999997
sg200
Nsg201
F1826.320676
sg202
F2680.227394
sg203
Nsg204
Nsg205
F4030.90922
sg206
F2717.2012329999998
sg207
F750.76448370000003
sg208
Nsg209
F3910.6787890000001
sg210
F17548.638749999998
sg211
F1571.200151
sg212
Nsg213
F16338.927009999999
sg214
F3991.0404360000002
sg215
Nsg216
F1243.163069
ssI1983
(dp239
g3
F23018.559980000002
sg4
Nsg5
Nsg6
Nsg7
Nsg8
Nsg9
F28307.983179999999
sg10
F617.32200399999999
sg11
Nsg12
F2471.701442
sg13
F8961.5796960000007
sg14
F3275.258229
sg15
F24451.484670000002
sg16
F652.97258239999996
sg17
F772.01122859999998
sg18
F23981.70278
sg19
F19383.51556
sg20
Nsg21
Nsg22
Nsg23
Nsg24
F3401.5979029999999
sg25
Nsg26
F27241.483810000002
sg27
Nsg28
F4003.7221469999999
sg29
F3937.709507
sg30
F4157.006069
sg31
F4833.5603789999996
sg32
F1069.6861960000001
sg33
Nsg34
F1356.0206000000001
sg35
F12666.92045
sg36
Nsg37
F4404.3915829999996
sg38
F16727.973109999999
sg39
Nsg40
F18291.56437
sg41
F5335.7246219999997
sg42
Nsg43
F2483.9844870000002
sg44
Nsg45
F95714.747449999995
sg46
Nsg47
F6296.8044099999997
sg48
F965.97737429999995
sg49
Nsg50
F769.64657339999997
sg51
F1308.754248
sg52
Nsg53
F6336.0054060000002
sg54
Nsg55
F9907.8141799999994
sg56
F689.65148580000005
sg57
F1892.26467
sg58
Nsg59
F6683.7802369999999
sg60
Nsg61
Nsg62
F20880.735779999999
sg63
F3379.9632860000002
sg64
Nsg65
F4553.9327240000002
sg66
Nsg67
F5316.8700600000002
sg68
F3380.0453969999999
sg69
F1249.75522
sg70
F9796.7697449999996
sg71
F27386.877410000001
sg72
F2292.044202
sg73
Nsg74
F1123.736711
sg75
Nsg76
F2476.6320639999999
sg77
Nsg78
F952.33777099999998
sg79
F639.48138119999999
sg80
Nsg81
Nsg82
F3903.2705639999999
sg83
Nsg84
F17874.54133
sg85
F2765.490769
sg86
F18901.058969999998
sg87
Nsg88
Nsg89
F851.7076677
sg90
F4035.871576
sg91
Nsg92
Nsg93
F673.18020379999996
sg94
Nsg95
Nsg96
F6416.8616739999998
sg97
F26044.945930000002
sg98
F8347.5760649999993
sg99
Nsg100
F2741.2175510000002
sg101
F8374.8018929999998
sg102
F3729.7644799999998
sg103
F12452.946040000001
sg104
F61694.891949999997
sg105
Nsg106
F5429.6060230000003
sg107
F21731.019550000001
sg108
Nsg109
F334.9339281
sg110
F582.46263939999994
sg111
Nsg112
F12114.69895
sg113
F843.03516920000004
sg114
Nsg115
F6556.7513390000004
sg116
Nsg117
Nsg118
F6738.6297599999998
sg119
F5468.2794260000001
sg120
F28481.648079999999
sg121
F1153.6778899999999
sg122
Nsg123
Nsg124
Nsg125
Nsg126
F5264.0194739999997
sg127
Nsg128
F19705.99655
sg129
F6654.0291429999997
sg130
F3564.0663100000002
sg131
Nsg132
F5446.9781039999998
sg133
Nsg134
F4875.6463670000003
sg135
Nsg136
F20931.12974
sg137
F2194.4171919999999
sg138
Nsg139
F3073.2242409999999
sg140
F803.1108279
sg141
F7488.2043130000002
sg142
F21974.952519999999
sg143
F2838.8630280000002
sg144
F4342.8930289999998
sg145
F12202.387839999999
sg146
F2283.8303179999998
sg147
Nsg148
F2175.4022789999999
sg149
F1009.7825329999999
sg150
F2465.5637190000002
sg151
Nsg152
F4074.5919509999999
sg153
Nsg154
Nsg155
F746.96574550000003
sg156
Nsg157
Nsg158
F20888.464530000001
sg159
F9958.4574730000004
sg160
F15748.500539999999
sg161
Nsg162
Nsg163
F847.23952029999998
sg164
F8288.3171889999994
sg165
F15530.901159999999
sg166
F5196.1983950000003
sg167
F632.42507939999996
sg168
F3056.1715439999998
sg169
F13584.29508
sg170
F1068.496905
sg171
F19230.140149999999
sg172
Nsg173
F1038.232749
sg174
F1117.739601
sg175
F575.64968629999998
sg176
F17537.301759999998
sg177
F10494.716780000001
sg178
F21937.65871
sg179
F17912.468010000001
sg180
F6210.9399149999999
sg181
Nsg182
Nsg183
F7752.244678
sg184
F15731.214749999999
sg185
F1467.2826729999999
sg186
F21919.548879999998
sg187
F1405.4458460000001
sg188
F1514.558376
sg189
F1834.416281
sg190
F641.71776179999995
sg191
F14329.094349999999
sg192
Nsg193
F21260.255430000001
sg194
Nsg195
Nsg196
Nsg197
Nsg198
F1713.9804819999999
sg199
F9159.8915730000008
sg200
Nsg201
F1715.806961
sg202
F2575.7579620000001
sg203
Nsg204
Nsg205
F4112.1077619999996
sg206
F2768.2797909999999
sg207
F740.86301939999998
sg208
Nsg209
F4276.505682
sg210
F18190.167089999999
sg211
F1674.948394
sg212
Nsg213
F16068.942220000001
sg214
F3757.1209180000001
sg215
Nsg216
F1262.462203
ssI1984
(dp240
g3
F24123.840499999998
sg4
Nsg5
Nsg6
F859.46864779999999
sg7
Nsg8
Nsg9
F29055.088729999999
sg10
F580.62945950000005
sg11
Nsg12
F2540.0101690000001
sg13
F9021.3897529999995
sg14
F3200.164471
sg15
F27331.736499999999
sg16
F625.32053940000003
sg17
F810.3273408
sg18
F21934.05054
sg19
F20120.721819999999
sg20
Nsg21
Nsg22
Nsg23
Nsg24
F3335.888496
sg25
Nsg26
F27362.35457
sg27
Nsg28
F4187.0155750000004
sg29
F4791.9273910000002
sg30
F4319.3669790000004
sg31
F5132.5850490000003
sg32
F1021.672557
sg33
Nsg34
F1376.8513559999999
sg35
F14050.401099999999
sg36
Nsg37
F4260.0215289999996
sg38
F17441.688859999998
sg39
Nsg40
F19044.684440000001
sg41
F5163.3336410000002
sg42
Nsg43
F2510.5479329999998
sg44
F11826.654490000001
sg45
F94734.269459999996
sg46
Nsg47
F6184.9159410000002
sg48
F980.51280150000002
sg49
Nsg50
F829.00540439999997
sg51
F1282.4916639999999
sg52
Nsg53
F6610.9913569999999
sg54
Nsg55
F9772.1857070000005
sg56
F706.2529581
sg57
F1780.7892649999999
sg58
Nsg59
F7136.6265819999999
sg60
Nsg61
Nsg62
F21071.824199999999
sg63
F3133.21702
sg64
Nsg65
F4418.6131939999996
sg66
Nsg67
F5465.2902640000002
sg68
F3621.1443899999999
sg69
F1160.314736
sg70
F10156.857620000001
sg71
F28919.354920000002
sg72
F2140.5051749999998
sg73
Nsg74
F1179.801158
sg75
Nsg76
F2586.6787570000001
sg77
Nsg78
F970.30586930000004
sg79
F727.07990400000006
sg80
Nsg81
Nsg82
F3865.3954650000001
sg83
Nsg84
F18274.462800000001
sg85
F2811.676825
sg86
F19384.581160000002
sg87
Nsg88
Nsg89
F905.96399399999996
sg90
F4190.1989190000004
sg91
Nsg92
Nsg93
F688.82513229999995
sg94
Nsg95
Nsg96
F6619.3012939999999
sg97
F27678.151170000001
sg98
F8813.8817749999998
sg99
Nsg100
F2839.0120689999999
sg101
F8576.3911250000001
sg102
F3920.811459
sg103
F13369.203240000001
sg104
F60351.658040000002
sg105
Nsg106
F5695.9587069999998
sg107
F21745.574339999999
sg108
F789.67576629999996
sg109
F308.26865780000003
sg110
F562.25691280000001
sg111
Nsg112
F12461.62393
sg113
F682.15617729999997
sg114
Nsg115
F6751.0730890000004
sg116
Nsg117
Nsg118
F6774.1009309999999
sg119
F5648.8577020000002
sg120
F30212.72006
sg121
F1170.7842499999999
sg122
Nsg123
Nsg124
Nsg125
Nsg126
F5324.4907130000001
sg127
Nsg128
F20380.115170000001
sg129
F6806.9012540000003
sg130
F3563.8993770000002
sg131
Nsg132
F6153.2843780000003
sg133
Nsg134
F5178.7462070000001
sg135
Nsg136
F21447.693579999999
sg137
F2118.3435169999998
sg138
Nsg139
F3036.7455110000001
sg140
F816.74700050000001
sg141
F7827.4601419999999
sg142
F22902.328460000001
sg143
F2559.4563539999999
sg144
F4442.9956140000004
sg145
F11927.031370000001
sg146
F2321.8766799999999
sg147
Nsg148
F2245.4062079999999
sg149
F1082.9955359999999
sg150
F2558.3182489999999
sg151
Nsg152
F4162.9409320000004
sg153
Nsg154
Nsg155
F742.74993059999997
sg156
Nsg157
Nsg158
F21760.892029999999
sg159
F10117.627710000001
sg160
F17141.840260000001
sg161
Nsg162
Nsg163
F784.96739960000002
sg164
F9245.5195029999995
sg165
F15743.594880000001
sg166
F5255.2638379999999
sg167
F612.82186179999997
sg168
F3241.862513
sg169
F13972.920249999999
sg170
F1059.308655
sg171
F19846.039809999998
sg172
Nsg173
F1089.153382
sg174
F1029.2507069999999
sg175
F616.60269410000001
sg176
F18728.706689999999
sg177
F10591.404829999999
sg178
F22519.753390000002
sg179
F18613.05647
sg180
F5930.6913979999999
sg181
Nsg182
Nsg183
F7347.4246009999997
sg184
F15667.288039999999
sg185
F1539.472714
sg186
F22583.150860000002
sg187
F1356.645673
sg188
F1526.3949130000001
sg189
F1779.8109460000001
sg190
F654.17124190000004
sg191
F13284.730659999999
sg192
Nsg193
F21936.11623
sg194
Nsg195
Nsg196
Nsg197
Nsg198
F1779.9051669999999
sg199
F9626.3076039999996
sg200
Nsg201
F1644.422354
sg202
F2607.5012700000002
sg203
Nsg204
Nsg205
F4263.6584069999999
sg206
F2656.8275279999998
sg207
F760.49803840000004
sg208
Nsg209
F4489.2786020000003
sg210
F18650.22077
sg211
F1663.0032080000001
sg212
Nsg213
F16310.566349999999
sg214
F3759.9215869999998
sg215
Nsg216
F1275.457079
ssI1985
(dp241
g3
F25043.130690000002
sg4
Nsg5
Nsg6
F879.00889159999997
sg7
Nsg8
Nsg9
F29989.774990000002
sg10
F499.4761767
sg11
Nsg12
F2541.955328
sg13
F8212.1358270000001
sg14
F3079.7158460000001
sg15
F28083.1296
sg16
F661.4060154
sg17
F824.48202249999997
sg18
F19908.754260000002
sg19
F21264.635399999999
sg20
Nsg21
Nsg22
Nsg23
Nsg24
F3237.0390710000001
sg25
Nsg26
F24962.396700000001
sg27
Nsg28
F4179.8637099999996
sg29
F4444.908563
sg30
F4147.5448379999998
sg31
F5239.108964
sg32
F998.38046440000005
sg33
Nsg34
F1432.194011
sg35
F15282.092060000001
sg36
Nsg37
F4238.5477549999996
sg38
F16515.99915
sg39
Nsg40
F19075.199670000002
sg41
F4943.6904469999999
sg42
Nsg43
F2601.3006970000001
sg44
F12158.178110000001
sg45
F86590.653630000001
sg46
Nsg47
F6235.416185
sg48
F1009.215043
sg49
Nsg50
F850.52457360000005
sg51
F1288.834965
sg52
F3176.229621
sg53
F6746.4491340000004
sg54
Nsg55
F9529.2389029999995
sg56
F709.62228789999995
sg57
F1784.5886009999999
sg58
Nsg59
F7547.3824210000002
sg60
Nsg61
Nsg62
F21289.277669999999
sg63
F3216.163305
sg64
Nsg65
F4298.466402
sg66
Nsg67
F5491.432022
sg68
F3574.2926050000001
sg69
F1241.22478
sg70
F11203.45549
sg71
F30376.599180000001
sg72
F2150.5646630000001
sg73
Nsg74
F1234.1732999999999
sg75
Nsg76
F2715.302854
sg77
Nsg78
F989.91891580000004
sg79
F814.07462640000006
sg80
Nsg81
Nsg82
F3701.521264
sg83
Nsg84
F16899.794330000001
sg85
F2992.4117449999999
sg86
F19941.391240000001
sg87
Nsg88
Nsg89
F916.87094860000002
sg90
F4451.7580399999997
sg91
Nsg92
Nsg93
F599.68850459999999
sg94
Nsg95
Nsg96
F6797.0264440000001
sg97
F28562.061829999999
sg98
F8766.6376799999998
sg99
F3007.8460089999999
sg100
F2954.3635789999998
sg101
F8255.3166829999991
sg102
F4131.4203289999996
sg103
F13852.53155
sg104
F57810.489509999999
sg105
Nsg106
F5478.0694229999999
sg107
F22269.247319999999
sg108
F803.3493158
sg109
F308.18264249999999
sg110
F525.8142259
sg111
Nsg112
F12452.711939999999
sg113
F714.79932799999995
sg114
Nsg115
F7134.1744529999996
sg116
Nsg117
Nsg118
F6959.91626
sg119
F5553.4890429999996
sg120
F30996.210220000001
sg121
F1249.036777
sg122
Nsg123
Nsg124
Nsg125
Nsg126
F5340.2645730000004
sg127
Nsg128
F21134.764330000002
sg129
F6846.2657319999998
sg130
F3539.2230909999998
sg131
Nsg132
F6688.0085939999999
sg133
Nsg134
F5456.2362869999997
sg135
Nsg136
F21795.471979999998
sg137
F1975.922771
sg138
Nsg139
F2991.2587060000001
sg140
F754.2303306
sg141
F8142.5682550000001
sg142
F23814.36448
sg143
F2308.516744
sg144
F4167.8467549999996
sg145
F12228.38042
sg146
F2408.3745060000001
sg147
Nsg148
F2310.54792
sg149
F1108.161094
sg150
F2626.9453709999998
sg151
Nsg152
F4433.3357370000003
sg153
Nsg154
Nsg155
F880.01360320000003
sg156
Nsg157
Nsg158
F22200.68563
sg159
F10175.3658
sg160
F17072.577290000001
sg161
Nsg162
Nsg163
F789.65738529999999
sg164
F10149.67059
sg165
F16050.26864
sg166
F5303.0438009999998
sg167
F663.06656029999999
sg168
F3043.3369050000001
sg169
F13979.21795
sg170
F1043.696586
sg171
F20395.4539
sg172
Nsg173
F1105.023357
sg174
F937.45285980000006
sg175
F639.17639529999997
sg176
F18579.7713
sg177
F10676.01434
sg178
F22993.329129999998
sg179
F17949.3452
sg180
F5774.9324479999996
sg181
Nsg182
Nsg183
F7223.9312069999996
sg184
F15924.13437
sg185
F1560.6754249999999
sg186
F23143.762449999998
sg187
F1335.932763
sg188
F1530.872267
sg189
F1803.626559
sg190
F655.75612650000005
sg191
F12565.03918
sg192
Nsg193
F22496.997179999998
sg194
Nsg195
Nsg196
Nsg197
Nsg198
F1840.6947299999999
sg199
F9527.5932979999998
sg200
Nsg201
F1699.2581359999999
sg202
F2636.0620370000001
sg203
Nsg204
F2238.5653080000002
sg205
F4369.3594370000001
sg206
F2487.8832200000002
sg207
F742.48189600000001
sg208
Nsg209
F4653.180112
sg210
F19282.246060000001
sg211
F1577.7937010000001
sg212
Nsg213
F16655.093629999999
sg214
F3797.1733300000001
sg215
Nsg216
F1267.7198860000001
ssI1986
(dp242
g3
F25392.915929999999
sg4
Nsg5
Nsg6
F897.16502190000006
sg7
Nsg8
Nsg9
F30388.622749999999
sg10
F530.42475249999995
sg11
Nsg12
F2739.8516850000001
sg13
F8727.5805810000002
sg14
F2935.9062939999999
sg15
F28057.150610000001
sg16
F695.74845779999998
sg17
F841.84398750000003
sg18
F19953.60354
sg19
F21733.825110000002
sg20
Nsg21
Nsg22
Nsg23
Nsg24
F3166.5596650000002
sg25
Nsg26
F25716.747039999998
sg27
Nsg28
F4310.034036
sg29
F5029.6148270000003
sg30
F3755.526535
sg31
F5657.1664810000002
sg32
F977.27290570000002
sg33
Nsg34
F1461.384294
sg35
F14938.61304
sg36
Nsg37
F4365.2996370000001
sg38
F15882.032869999999
sg39
Nsg40
F19510.89734
sg41
F4983.4983849999999
sg42
Nsg43
F2733.8292710000001
sg44
F12586.568929999999
sg45
F69526.111659999995
sg46
Nsg47
F6741.7915270000003
sg48
F1034.2685650000001
sg49
Nsg50
F837.0825198
sg51
F1331.711626
sg52
F3185.1040870000002
sg53
F7077.1223460000001
sg54
Nsg55
F9887.4380000000001
sg56
F719.94071919999999
sg57
F1836.6351219999999
sg58
Nsg59
F8272.1989510000003
sg60
Nsg61
Nsg62
F21645.837309999999
sg63
F2960.4857120000001
sg64
Nsg65
F4330.3801480000002
sg66
Nsg67
F5905.9109049999997
sg68
F3488.7832269999999
sg69
F1240.2182499999999
sg70
F11105.02101
sg71
F31490.546279999999
sg72
F2138.8452069999998
sg73
Nsg74
F1227.0787130000001
sg75
Nsg76
F2815.1222299999999
sg77
Nsg78
F973.13912809999999
sg79
F872.63659670000004
sg80
Nsg81
Nsg82
F3750.3445219999999
sg83
Nsg84
F16547.408889999999
sg85
F3049.4807719999999
sg86
F20401.820950000001
sg87
Nsg88
Nsg89
F927.22082450000005
sg90
F4844.0654560000003
sg91
Nsg92
Nsg93
F639.94266930000003
sg94
F2587.8045310000002
sg95
Nsg96
F7084.8969200000001
sg97
F29269.196650000002
sg98
F8936.3253769999992
sg99
F3006.8289570000002
sg100
F2960.092592
sg101
F8047.6977100000004
sg102
F4376.4682270000003
sg103
F14201.810299999999
sg104
F54683.41532
sg105
Nsg106
F5384.9754050000001
sg107
F22770.666079999999
sg108
F806.82944499999996
sg109
F299.98232309999997
sg110
F509.72981240000001
sg111
F2144.7706159999998
sg112
F12665.44088
sg113
F739.42420579999998
sg114
Nsg115
F7548.790309
sg116
Nsg117
F617.43473170000004
sg118
F7059.2172710000004
sg119
F5717.8232239999998
sg120
F33938.238490000003
sg121
F1268.3224299999999
sg122
Nsg123
Nsg124
Nsg125
Nsg126
F5418.6772119999996
sg127
Nsg128
F21737.510780000001
sg129
F6675.7163380000002
sg130
F3500.7856579999998
sg131
Nsg132
F7495.2244780000001
sg133
Nsg134
F5666.3729389999999
sg135
Nsg136
F22184.841540000001
sg137
F1962.927146
sg138
Nsg139
F3050.9855640000001
sg140
F742.78364039999997
sg141
F7410.7756730000001
sg142
F24959.594509999999
sg143
F2323.589285
sg144
F4457.5093200000001
sg145
F12723.17476
sg146
F2547.6928659999999
sg147
Nsg148
F2456.7898829999999
sg149
F1078.904462
sg150
F2719.764498
sg151
Nsg152
F4787.6526670000003
sg153
Nsg154
Nsg155
F819.72371850000002
sg156
Nsg157
Nsg158
F22782.820230000001
sg159
F9596.1203339999993
sg160
F18732.430789999999
sg161
Nsg162
Nsg163
F796.79244340000002
sg164
F11631.2124
sg165
F16522.205089999999
sg166
F5495.8903979999995
sg167
F663.07306840000001
sg168
F3248.0133300000002
sg169
F15230.98717
sg170
F1035.569381
sg171
F20977.614979999998
sg172
Nsg173
F1155.26324
sg174
F963.02828220000004
sg175
F652.73426949999998
sg176
F18839.606299999999
sg177
F10907.021919999999
sg178
F23503.3514
sg179
F18346.63436
sg180
F5511.1060100000004
sg181
Nsg182
Nsg183
F6322.125489
sg184
F16430.941030000002
sg185
F1621.422902
sg186
F24415.479909999998
sg187
F1304.6303399999999
sg188
F1532.3285800000001
sg189
F1841.344173
sg190
F620.80161369999996
sg191
F12027.092769999999
sg192
Nsg193
F23001.050289999999
sg194
Nsg195
Nsg196
Nsg197
Nsg198
F1886.9210989999999
sg199
F9895.5321459999996
sg200
Nsg201
F1698.9200000000001
sg202
F2576.8323059999998
sg203
Nsg204
F2083.2112440000001
sg205
F4172.6451379999999
sg206
F2407.6029109999999
sg207
F755.13709089999998
sg208
Nsg209
F4872.8639240000002
sg210
F20009.894390000001
sg211
F1566.8386270000001
sg212
Nsg213
F16686.028470000001
sg214
F3690.069023
sg215
Nsg216
F1256.6913139999999
ssI1987
(dp243
g3
F26127.936590000001
sg4
Nsg5
F3784.8892179999998
sg6
F860.25935930000003
sg7
Nsg8
Nsg9
F30677.133399999999
sg10
F584.84883520000005
sg11
Nsg12
F3006.467975
sg13
F8849.7681979999998
sg14
F2942.8469930000001
sg15
F28390.011409999999
sg16
F676.15429749999998
sg17
F857.8378884
sg18
F18354.85742
sg19
F22515.516390000001
sg20
Nsg21
Nsg22
Nsg23
Nsg24
F3204.1187249999998
sg25
Nsg26
F26353.728090000001
sg27
Nsg28
F4275.8919239999996
sg29
F5055.1228920000003
sg30
F3659.3714810000001
sg31
F6137.7342580000004
sg32
F971.27112
sg33
Nsg34
F1505.338585
sg35
F13877.699130000001
sg36
Nsg37
F4216.080841
sg38
F12755.26672
sg39
Nsg40
F19637.174589999999
sg41
F5340.8800259999998
sg42
Nsg43
F2733.8641899999998
sg44
F12824.573479999999
sg45
F67707.60037
sg46
Nsg47
F7235.2849059999999
sg48
F1052.0017130000001
sg49
Nsg50
F761.83842870000001
sg51
F1360.932397
sg52
F3047.1316959999999
sg53
F7604.2260880000003
sg54
Nsg55
F9985.5733500000006
sg56
F726.85233870000002
sg57
F1822.7951519999999
sg58
Nsg59
F9104.3179760000003
sg60
Nsg61
Nsg62
F22036.587019999999
sg63
F2924.4513350000002
sg64
Nsg65
F4294.7829899999997
sg66
Nsg67
F6238.3997330000002
sg68
F3310.9674439999999
sg69
F1200.098857
sg70
F11513.50447
sg71
F31901.427500000002
sg72
F2056.1782039999998
sg73
Nsg74
F1176.337417
sg75
Nsg76
F2674.2914730000002
sg77
Nsg78
F947.44736230000001
sg79
F958.37008430000003
sg80
Nsg81
Nsg82
F4043.3017460000001
sg83
F8174.8411610000003
sg84
F17641.808870000001
sg85
F3132.1100759999999
sg86
F21054.041669999999
sg87
Nsg88
Nsg89
F862.36756649999995
sg90
F5233.4851799999997
sg91
Nsg92
Nsg93
F627.40681329999995
sg94
F2558.1486639999998
sg95
Nsg96
F7502.8075360000003
sg97
F29927.48329
sg98
F8972.496341
sg99
F3162.8602179999998
sg100
F2962.3646659999999
sg101
F8014.2213570000004
sg102
F4545.047294
sg103
F15040.74973
sg104
F54238.37876
sg105
Nsg106
F5511.5159940000003
sg107
F23062.647349999999
sg108
F815.42697539999995
sg109
F344.57422509999998
sg110
F511.13617699999998
sg111
F2173.7980480000001
sg112
F13200.678980000001
sg113
F719.52754660000005
sg114
Nsg115
F7669.2897679999996
sg116
Nsg117
F622.47067130000005
sg118
F6789.9701500000001
sg119
F5949.599064
sg120
F35051.231910000002
sg121
F1310.4096509999999
sg122
Nsg123
Nsg124
Nsg125
Nsg126
F5172.4741679999997
sg127
Nsg128
F21956.067579999999
sg129
F6446.2640940000001
sg130
F3544.0052569999998
sg131
Nsg132
F8175.6781119999996
sg133
Nsg134
F5939.5443219999997
sg135
Nsg136
F22677.229220000001
sg137
F1861.932225
sg138
Nsg139
F3300.2138789999999
sg140
F773.70602529999996
sg141
F7444.0741349999998
sg142
F25000.27507
sg143
F2359.6422769999999
sg144
F4473.836644
sg145
F13538.738240000001
sg146
F2428.0387479999999
sg147
Nsg148
F2469.4252499999998
sg149
F1088.9588450000001
sg150
F2922.2921500000002
sg151
Nsg152
F5362.517597
sg153
Nsg154
Nsg155
F775.90164389999995
sg156
Nsg157
Nsg158
F23491.928169999999
sg159
F9574.9602140000006
sg160
F20994.215169999999
sg161
F1881.248595
sg162
Nsg163
F758.88558130000001
sg164
F12796.342629999999
sg165
F17395.735560000001
sg166
F5672.5636780000004
sg167
F678.14109670000005
sg168
F3020.118426
sg169
F15322.294260000001
sg170
F1018.869163
sg171
F21645.00318
sg172
Nsg173
F1342.027382
sg174
F1074.303672
sg175
F648.28414669999995
sg176
F20553.190129999999
sg177
F11277.43118
sg178
F23805.725549999999
sg179
F20097.628079999999
sg180
F4696.8465329999999
sg181
Nsg182
Nsg183
F6009.7954840000002
sg184
F17329.76756
sg185
F1675.1681269999999
sg186
F26213.233219999998
sg187
F1299.396812
sg188
F1577.656557
sg189
F1846.4133979999999
sg190
F594.61857599999996
sg191
F11390.471089999999
sg192
Nsg193
F23287.758300000001
sg194
Nsg195
Nsg196
Nsg197
Nsg198
F1890.6423010000001
sg199
F10024.00193
sg200
Nsg201
F1729.1142090000001
sg202
F2652.5061810000002
sg203
Nsg204
F2094.5297970000001
sg205
F4340.9628199999997
sg206
F2340.0619889999998
sg207
F752.65271319999999
sg208
Nsg209
F5281.3479139999999
sg210
F20878.329300000001
sg211
F1529.0748610000001
sg212
Nsg213
F16254.67402
sg214
F3743.2566870000001
sg215
Nsg216
F1244.599614
ssI1988
(dp244
g3
F27075.83077
sg4
Nsg5
F4097.9282839999996
sg6
F819.75519389999999
sg7
Nsg8
Nsg9
F31450.610420000001
sg10
F569.11166319999995
sg11
Nsg12
F3068.2355899999998
sg13
F8498.6489629999996
sg14
F2961.8664429999999
sg15
F28555.828990000002
sg16
F696.66780559999995
sg17
F882.04470209999999
sg18
F19103.345600000001
sg19
F24021.925660000001
sg20
Nsg21
Nsg22
Nsg23
Nsg24
F3253.8313039999998
sg25
Nsg26
F22643.408609999999
sg27
Nsg28
F4051.4934480000002
sg29
F5587.5997120000002
sg30
F3622.9557810000001
sg31
F6721.1133559999998
sg32
F961.3705453
sg33
Nsg34
F1569.050935
sg35
F14175.02464
sg36
F822.98897069999998
sg37
F4053.6407370000002
sg38
F13949.533600000001
sg39
Nsg40
F19553.944950000001
sg41
F5539.4743239999998
sg42
Nsg43
F2679.250681
sg44
F13004.45767
sg45
F62068.380349999999
sg46
Nsg47
F7296.4610629999997
sg48
F1128.6432119999999
sg49
Nsg50
F813.47945990000005
sg51
F1395.206416
sg52
F3363.3997749999999
sg53
F7642.3841240000002
sg54
Nsg55
F10310.653200000001
sg56
F723.00724009999999
sg57
F1806.1664639999999
sg58
Nsg59
F9977.1366689999995
sg60
Nsg61
Nsg62
F22935.96141
sg63
F3213.368465
sg64
Nsg65
F4144.4912839999997
sg66
Nsg67
F5573.1011349999999
sg68
F3178.6678550000001
sg69
F1285.231552
sg70
F12047.582060000001
sg71
F31675.435890000001
sg72
F2008.5003059999999
sg73
Nsg74
F1183.1655840000001
sg75
Nsg76
F2393.1809600000001
sg77
Nsg78
F980.32380969999997
sg79
F1049.6293430000001
sg80
Nsg81
Nsg82
F4045.3063870000001
sg83
F8347.5402150000009
sg84
F18221.539560000001
sg85
F3064.0139979999999
sg86
F22089.02853
sg87
Nsg88
Nsg89
F858.97721439999998
sg90
F5545.5193410000002
sg91
Nsg92
Nsg93
F627.57845929999996
sg94
F2566.2632570000001
sg95
Nsg96
F8314.6181120000001
sg97
F30872.927909999999
sg98
F8885.8041670000002
sg99
F3259.2442930000002
sg100
F3046.7712310000002
sg101
F8153.8851020000002
sg102
F5177.4451900000004
sg103
F16168.924230000001
sg104
F53313.773269999998
sg105
Nsg106
F5883.686506
sg107
F23752.191009999999
sg108
F836.79604859999995
sg109
F373.63957649999998
sg110
F533.54201760000001
sg111
F2417.6899269999999
sg112
F13212.29917
sg113
F747.53544439999996
sg114
Nsg115
F7519.3425649999999
sg116
Nsg117
F643.67671900000005
sg118
F5762.2672080000002
sg119
F6016.080414
sg120
F37742.853139999999
sg121
F1377.1426550000001
sg122
Nsg123
Nsg124
Nsg125
Nsg126
F5470.8558249999996
sg127
Nsg128
F22868.128420000001
sg129
F6212.7276510000002
sg130
F3565.0938230000002
sg131
Nsg132
F8947.5259440000009
sg133
Nsg134
F6266.4374189999999
sg135
Nsg136
F23672.939869999998
sg137
F2155.0306209999999
sg138
Nsg139
F3512.8420339999998
sg140
F699.698981
sg141
F7780.2172689999998
sg142
F24952.480449999999
sg143
F2453.369991
sg144
F4515.9832759999999
sg145
F14567.804630000001
sg146
F2624.623681
sg147
Nsg148
F2524.4435109999999
sg149
F1116.7620750000001
sg150
F3250.703348
sg151
Nsg152
F5620.9655339999999
sg153
Nsg154
Nsg155
F868.17641830000002
sg156
Nsg157
Nsg158
F24007.724730000002
sg159
F9496.6032369999994
sg160
F22617.017479999999
sg161
F2004.3073810000001
sg162
Nsg163
F760.26955680000003
sg164
F13671.16877
sg165
F18241.77936
sg166
F5784.0359189999999
sg167
F691.55045529999995
sg168
F3044.2754620000001
sg169
F16215.543610000001
sg170
F1023.833315
sg171
F22541.981220000001
sg172
Nsg173
F1496.4698960000001
sg174
F1046.9744929999999
sg175
F681.79552290000004
sg176
F22259.601579999999
sg177
F12126.36915
sg178
F24466.344779999999
sg179
F20807.871350000001
sg180
F5007.5159370000001
sg181
Nsg182
Nsg183
F5440.1415740000002
sg184
F17389.98374
sg185
F1749.213679
sg186
F25782.72075
sg187
F1340.637528
sg188
F1521.710591
sg189
F1854.6157169999999
sg190
F578.74655989999997
sg191
F10879.604289999999
sg192
Nsg193
F24056.92122
sg194
Nsg195
Nsg196
Nsg197
Nsg198
F1911.0139489999999
sg199
F10428.274590000001
sg200
Nsg201
F1678.3902539999999
sg202
F2694.8158629999998
sg203
Nsg204
F2083.6954500000002
sg205
F4248.5251079999998
sg206
F2006.3546060000001
sg207
F733.08012080000003
sg208
Nsg209
F6115.0611570000001
sg210
F21880.28672
sg211
F1522.6566479999999
sg212
Nsg213
F16890.19557
sg214
F3872.9604100000001
sg215
F8051.6739170000001
sg216
F1246.550536
ssI1989
(dp245
g3
F27293.87772
sg4
Nsg5
F3823.0355049999998
sg6
F910.11872919999996
sg7
Nsg8
Nsg9
F32548.43895
sg10
F548.77407930000004
sg11
Nsg12
F3329.566057
sg13
F7749.6991559999997
sg14
F3005.6620710000002
sg15
F29960.753390000002
sg16
F692.91211220000002
sg17
F902.32442939999999
sg18
F18435.713940000001
sg19
F25208.525799999999
sg20
Nsg21
Nsg22
Nsg23
Nsg24
F3306.0243799999998
sg25
Nsg26
F27749.20004
sg27
F13066.414500000001
sg28
F3382.5617659999998
sg29
F6011.0697200000004
sg30
F3617.1527820000001
sg31
F6751.8274609999999
sg32
F714.96783649999998
sg33
Nsg34
F1597.0061310000001
sg35
F15262.728499999999
sg36
F828.01321329999996
sg37
F4368.9549079999997
sg38
F14669.2799
sg39
Nsg40
F19565.906299999999
sg41
F5890.5908890000001
sg42
Nsg43
F2761.0434740000001
sg44
F13098.35815
sg45
F65729.523270000005
sg46
Nsg47
F7329.3637090000002
sg48
F1170.6035199999999
sg49
Nsg50
F852.89344159999996
sg51
F1410.9331979999999
sg52
F3055.20741
sg53
F7531.6907780000001
sg54
Nsg55
F9204.5839030000006
sg56
F722.96974460000001
sg57
F1843.198582
sg58
Nsg59
F10548.26701
sg60
Nsg61
Nsg62
F23767.998780000002
sg63
F2839.5167959999999
sg64
Nsg65
F4044.7229459999999
sg66
Nsg67
F4817.7991089999996
sg68
F3148.6965530000002
sg69
F1342.9825249999999
sg70
F13292.504790000001
sg71
F31859.617920000001
sg72
F1998.263569
sg73
Nsg74
F1116.3708300000001
sg75
Nsg76
F2281.8341420000002
sg77
Nsg78
F992.10532420000004
sg79
F1076.0395149999999
sg80
Nsg81
Nsg82
F4137.4778649999998
sg83
F8628.6445559999993
sg84
F17682.94541
sg85
F3067.4071680000002
sg86
F23127.015479999998
sg87
Nsg88
Nsg89
F857.41151130000003
sg90
F5748.5077970000002
sg91
Nsg92
Nsg93
F690.31011760000001
sg94
F2598.451407
sg95
Nsg96
F8135.7132540000002
sg97
F31673.00735
sg98
F8332.9427130000004
sg99
F3189.9622570000001
sg100
F3127.4051989999998
sg101
F8164.6887779999997
sg102
F5279.1965479999999
sg103
F17206.890039999998
sg104
F51276.417119999998
sg105
Nsg106
F6233.7176300000001
sg107
F24564.540110000002
sg108
F877.46427700000004
sg109
F396.68037340000001
sg110
F547.35910560000002
sg111
F2433.7327529999998
sg112
F13455.329250000001
sg113
F732.69732869999996
sg114
Nsg115
F7627.6962270000004
sg116
Nsg117
F646.19441519999998
sg118
F5733.8593069999997
sg119
F6159.1366109999999
sg120
F41039.809020000001
sg121
F1439.515306
sg122
Nsg123
Nsg124
Nsg125
Nsg126
F5395.3277859999998
sg127
Nsg128
F23370.168860000002
sg129
F6319.6864589999996
sg130
F3552.10745
sg131
Nsg132
F9662.0237460000008
sg133
Nsg134
F6809.1172749999996
sg135
Nsg136
F24405.380379999999
sg137
F1929.5334700000001
sg138
Nsg139
F3898.9733780000001
sg140
F690.12525459999995
sg141
F7201.4743399999998
sg142
F25080.38366
sg143
F2539.276163
sg144
F4714.8917140000003
sg145
F15528.70736
sg146
F2632.9636770000002
sg147
Nsg148
F2566.037198
sg149
F1161.4394179999999
sg150
F3587.7289839999999
sg151
Nsg152
F6035.7660450000003
sg153
Nsg154
Nsg155
F882.2579958
sg156
Nsg157
Nsg158
F24510.855950000001
sg159
F9697.0292439999994
sg160
F22881.335869999999
sg161
F2017.509677
sg162
Nsg163
F742.36275969999997
sg164
F14571.29752
sg165
F19085.036609999999
sg166
F5863.3310190000002
sg167
F682.12769760000003
sg168
F3263.273553
sg169
F16968.98545
sg170
F1035.061543
sg171
F23288.31511
sg172
Nsg173
F1553.997089
sg174
F1114.994117
sg175
F694.47443699999997
sg176
F23824.794119999999
sg177
F12991.13818
sg178
F25395.014749999998
sg179
F21063.730599999999
sg180
F5437.2772610000002
sg181
Nsg182
Nsg183
F5600.3619470000003
sg184
F17246.056850000001
sg185
F1874.520726
sg186
F25531.210200000001
sg187
F1289.490121
sg188
F1535.223882
sg189
F1784.513807
sg190
F558.3648776
sg191
F10729.72176
sg192
Nsg193
F24801.766810000001
sg194
Nsg195
Nsg196
Nsg197
Nsg198
F1928.694107
sg199
F10965.29919
sg200
Nsg201
F1605.611791
sg202
F2731.6196829999999
sg203
Nsg204
F1997.6967810000001
sg205
F4267.8353420000003
sg206
F1930.5898030000001
sg207
F700.04918840000005
sg208
Nsg209
F6705.4805800000004
sg210
F22321.286810000001
sg211
F1541.6833790000001
sg212
Nsg213
F17440.770280000001
sg214
F3988.5741379999999
sg215
F4604.831792
sg216
F1177.773535
ssI1990
(dp246
g3
F26941.150460000001
sg4
Nsg5
F3749.041401
sg6
F944.11803369999996
sg7
F12499.662549999999
sg8
Nsg9
F33399.732389999997
sg10
F545.24174600000003
sg11
Nsg12
F3894.1834600000002
sg13
F7458.2937689999999
sg14
F3074.1272800000002
sg15
F28969.46658
sg16
F670.46227080000006
sg17
F907.1008339
sg18
F19304.475409999999
sg19
F26522.550360000001
sg20
Nsg21
Nsg22
Nsg23
F16454.678810000001
sg24
F3331.5466200000001
sg25
Nsg26
Nsg27
F12625.619629999999
sg28
F3292.6708090000002
sg29
F7321.148921
sg30
F3555.6532609999999
sg31
F7138.0913840000003
sg32
F355.40800059999998
sg33
Nsg34
F1620.134127
sg35
F14661.580110000001
sg36
F858.6236758
sg37
F3910.2177929999998
sg38
F14944.20271
sg39
Nsg40
F19393.033749999999
sg41
F6099.2472230000003
sg42
Nsg43
F2620.806016
sg44
F12692.581620000001
sg45
F73501.526119999995
sg46
Nsg47
F7301.4770209999997
sg48
F1209.8191059999999
sg49
F4753.9265020000003
sg50
F891.6080005
sg51
F1421.0676920000001
sg52
F2960.7892230000002
sg53
F8088.2787660000004
sg54
Nsg55
F9573.9571329999999
sg56
F747.19029550000005
sg57
F1762.7826749999999
sg58
F2339.715913
sg59
F11382.642330000001
sg60
Nsg61
Nsg62
F24267.25418
sg63
F2967.730176
sg64
Nsg65
F3987.0414470000001
sg66
Nsg67
F4476.8953300000003
sg68
F3426.5329579999998
sg69
F1417.0287330000001
sg70
F14097.951209999999
sg71
F32361.91732
sg72
F1910.528035
sg73
Nsg74
F1117.0110830000001
sg75
Nsg76
F2081.745856
sg77
Nsg78
F965.01700449999998
sg79
F1100.6599309999999
sg80
F2937.892511
sg81
Nsg82
F3833.411623
sg83
F8062.6049089999997
sg84
F17909.588489999998
sg85
F2998.0118670000002
sg86
F23141.031159999999
sg87
Nsg88
Nsg89
F820.05432210000004
sg90
F6104.2915569999996
sg91
Nsg92
F6434.0594099999998
sg93
F665.05841120000002
sg94
F2633.694868
sg95
Nsg96
F7528.5280709999997
sg97
F31898.502939999998
sg98
F7852.6083440000002
sg99
F3093.4636220000002
sg100
F3237.3227449999999
sg101
F7974.7075619999996
sg102
F5523.217071
sg103
F18091.319009999999
sg104
F50393.212010000003
sg105
Nsg106
F6607.3665590000001
sg107
F25437.45278
sg108
F904.86306260000003
sg109
F395.64977850000002
sg110
F562.66801510000005
sg111
F2523.4890999999998
sg112
F13119.686170000001
sg113
F701.66851819999999
sg114
Nsg115
F7174.7578709999998
sg116
Nsg117
F644.52980660000003
sg118
F6072.5488429999996
sg119
F6238.9293120000002
sg120
F42685.427889999999
sg121
F1426.5025430000001
sg122
Nsg123
Nsg124
Nsg125
Nsg126
F5413.9614510000001
sg127
F16515.512999999999
sg128
F23849.996490000001
sg129
F6211.3397880000002
sg130
F3671.932902
sg131
Nsg132
F9915.1072399999994
sg133
Nsg134
F6936.8176860000003
sg135
Nsg136
F25096.11808
sg137
F1943.441272
sg138
Nsg139
F4181.0104739999997
sg140
F704.33240379999995
sg141
F6138.1653230000002
sg142
F25442.170679999999
sg143
F2551.5856229999999
sg144
F4583.0584429999999
sg145
F16177.39255
sg146
F2686.816707
sg147
F13386.769829999999
sg148
F2434.8040729999998
sg149
F1207.8340740000001
sg150
F3933.3724779999998
sg151
F8522.6276839999991
sg152
F6388.1923120000001
sg153
F1812.4496549999999
sg154
Nsg155
F819.48094939999999
sg156
Nsg157
Nsg158
F24567.941210000001
sg159
F9990.2918630000004
sg160
F23697.09532
sg161
F2002.2091230000001
sg162
F2736.429087
sg163
F726.11383969999997
sg164
F14939.749680000001
sg165
F19776.656950000001
sg166
F6096.664358
sg167
F689.07385450000004
sg168
F3433.6499170000002
sg169
F16096.48955
sg170
F1036.519622
sg171
F23746.440620000001
sg172
Nsg173
F1679.156232
sg174
F1029.394976
sg175
F709.26434659999995
sg176
F25233.975490000001
sg177
F13674.03002
sg178
F26275.76023
sg179
F22036.34115
sg180
F5323.8456580000002
sg181
Nsg182
Nsg183
F6200.6694170000001
sg184
F17863.460230000001
sg185
F2008.364554
sg186
F25629.675299999999
sg187
F1248.5757040000001
sg188
F1479.7362680000001
sg189
F1688.955571
sg190
F569.40941450000003
sg191
F10823.85865
sg192
Nsg193
F25881.050179999998
sg194
F7089.1269920000004
sg195
F8182.0941119999998
sg196
Nsg197
Nsg198
F2029.215173
sg199
F10108.6831
sg200
Nsg201
F1563.7384910000001
sg202
F2658.0973789999998
sg203
Nsg204
F1999.053715
sg205
F4496.549661
sg206
F1886.064558
sg207
F630.91997060000006
sg208
F11601.81776
sg209
F6948.1573060000001
sg210
F22428.087469999999
sg211
F1533.401963
sg212
Nsg213
F17325.02852
sg214
F4004.9675560000001
sg215
F5736.7625580000004
sg216
F1208.103619
ssI1991
(dp247
g3
F26021.06033
sg4
Nsg5
F3474.0053600000001
sg6
F957.2969051
sg7
F11770.183720000001
sg8
Nsg9
F32672.789499999999
sg10
F489.45927979999999
sg11
Nsg12
F3853.2485409999999
sg13
F8288.6836739999999
sg14
F3162.2375830000001
sg15
F27256.06295
sg16
F711.72886210000001
sg17
F928.48121279999998
sg18
F20391.370869999999
sg19
F27319.331440000002
sg20
Nsg21
Nsg22
Nsg23
F14980.688260000001
sg24
F3374.7725110000001
sg25
Nsg26
Nsg27
F11961.632240000001
sg28
F2998.0651120000002
sg29
F7412.1852669999998
sg30
F3544.4928759999998
sg31
F7190.0005849999998
sg32
F310.06060830000001
sg33
Nsg34
F1655.866264
sg35
F14921.22169
sg36
F848.09482490000005
sg37
F2751.3733910000001
sg38
F15352.22493
sg39
Nsg40
F18236.718779999999
sg41
F6351.709871
sg42
Nsg43
F2541.6825309999999
sg44
F10834.39284
sg45
F70206.555659999998
sg46
Nsg47
F7506.7017850000002
sg48
F1197.759994
sg49
F4647.9337509999996
sg50
F896.16853609999998
sg51
F1394.3536570000001
sg52
F2691.8779209999998
sg53
F8007.6847029999999
sg54
Nsg55
F10272.98488
sg56
F754.13847580000004
sg57
F1746.254148
sg58
F2411.2995059999998
sg59
F12337.009309999999
sg60
Nsg61
Nsg62
F24403.376230000002
sg63
F3109.8458649999998
sg64
Nsg65
F4164.6323629999997
sg66
Nsg67
F4483.6057819999996
sg68
F3436.7217260000002
sg69
F1448.2799749999999
sg70
F14332.53098
sg71
F33208.283779999998
sg72
F1848.09851
sg73
Nsg74
F1131.6066719999999
sg75
Nsg76
F1946.671648
sg77
Nsg78
F937.2339978
sg79
F1185.632603
sg80
F2618.2714609999998
sg81
Nsg82
F3793.0750509999998
sg83
F7369.0843420000001
sg84
F19378.510119999999
sg85
F3185.143998
sg86
F21634.103780000001
sg87
Nsg88
Nsg89
F795.84478739999997
sg90
F6306.5979360000001
sg91
Nsg92
F6353.7327590000004
sg93
F661.43079739999996
sg94
F2759.6851929999998
sg95
Nsg96
F6961.323582
sg97
F31392.8714
sg98
F6899.295744
sg99
F2964.9795490000001
sg100
F3209.6228970000002
sg101
F7732.4571699999997
sg102
F5541.4507409999997
sg103
F17759.389589999999
sg104
F50529.164969999998
sg105
Nsg106
F7044.9244189999999
sg107
F26051.50936
sg108
F941.32344250000006
sg109
F405.4490121
sg110
F573.97609669999997
sg111
F2287.650623
sg112
F11560.142959999999
sg113
F697.0313208
sg114
Nsg115
F7163.7293650000001
sg116
Nsg117
F626.10603700000001
sg118
F6509.3814609999999
sg119
F6242.4041120000002
sg120
F45758.099430000002
sg121
F1416.0691420000001
sg122
Nsg123
Nsg124
F14570.95901
sg125
Nsg126
F5568.7348350000002
sg127
F14632.33064
sg128
F23491.596369999999
sg129
F5987.3798720000004
sg130
F3746.7080970000002
sg131
Nsg132
F10007.67159
sg133
Nsg134
F7354.9973069999996
sg135
Nsg136
F25461.35989
sg137
F1826.031416
sg138
F1377.4035369999999
sg139
F4500.8236219999999
sg140
F718.40812619999997
sg141
F4809.0625669999999
sg142
F25706.22856
sg143
F2475.8372410000002
sg144
F3839.3811559999999
sg145
F16910.038069999999
sg146
F2819.8018229999998
sg147
F11196.093360000001
sg148
F2189.2681050000001
sg149
F1244.060381
sg150
F4222.6878790000001
sg151
F7940.9079510000001
sg152
F6523.5307910000001
sg153
F1835.565155
sg154
Nsg155
F862.65463050000005
sg156
Nsg157
Nsg158
F24127.438880000002
sg159
F10216.137720000001
sg160
F24839.70001
sg161
F1950.3277869999999
sg162
F2532.2294120000001
sg163
F732.41051359999994
sg164
F15109.89861
sg165
F20234.018950000001
sg166
F6116.3801919999996
sg167
F708.04601290000005
sg168
F3309.715835
sg169
F15576.729359999999
sg170
F942.6991706
sg171
F24093.961619999998
sg172
Nsg173
F1770.093666
sg174
F1079.5849800000001
sg175
F736.17817560000003
sg176
F26115.484420000001
sg177
F14385.07221
sg178
F26705.358189999999
sg179
F22246.58394
sg180
F5390.8244759999998
sg181
Nsg182
Nsg183
F6832.0691699999998
sg184
F18115.3717
sg185
F2151.420114
sg186
F25277.675640000001
sg187
F1215.959243
sg188
F1472.812709
sg189
F1805.0963790000001
sg190
F606.01875410000002
sg191
F11034.79854
sg192
Nsg193
F27005.638760000002
sg194
F6270.0108069999997
sg195
F7581.136399
sg196
Nsg197
Nsg198
F2091.58178
sg199
F8877.3730059999998
sg200
Nsg201
F1660.7194939999999
sg202
F2669.4503239999999
sg203
Nsg204
F1911.65578
sg205
F4580.1172230000002
sg206
F1838.573891
sg207
F555.65910210000004
sg208
F10453.57883
sg209
F7250.3178669999998
sg210
F22047.497210000001
sg211
F1525.618487
sg212
Nsg213
F17689.009239999999
sg214
F3999.7548139999999
sg215
F7724.7022100000004
sg216
F1115.656845
ssI1992
(dp248
g3
F25928.581160000002
sg4
Nsg5
F3196.9800970000001
sg6
F982.67008920000001
sg7
F9278.0330350000004
sg8
Nsg9
F32346.800090000001
sg10
F432.04789899999997
sg11
Nsg12
F3886.9396149999998
sg13
F9154.9137190000001
sg14
F3140.4079590000001
sg15
F25728.46961
sg16
F694.19019089999995
sg17
F937.4116798
sg18
F20690.623729999999
sg19
F27474.797569999999
sg20
Nsg21
Nsg22
Nsg23
F14182.979660000001
sg24
F3457.0193850000001
sg25
Nsg26
Nsg27
F10219.009400000001
sg28
F3378.4801470000002
sg29
F7866.0755440000003
sg30
F3541.0392160000001
sg31
F7324.7984120000001
sg32
F204.91633200000001
sg33
Nsg34
F1737.519689
sg35
F15505.082200000001
sg36
F824.9424755
sg37
F2572.5878969999999
sg38
F14402.677879999999
sg39
Nsg40
F18250.054619999999
sg41
F6430.4810660000003
sg42
Nsg43
F2516.6829619999999
sg44
F10102.88003
sg45
F68798.278539999999
sg46
Nsg47
F8043.7436250000001
sg48
F1238.2225249999999
sg49
F3543.4066320000002
sg50
F945.11339420000002
sg51
F1338.8953819999999
sg52
F1876.5216640000001
sg53
F8269.2847770000008
sg54
Nsg55
F10651.91714
sg56
F774.48457940000003
sg57
F1730.755304
sg58
F2641.3259509999998
sg59
F12943.728870000001
sg60
Nsg61
Nsg62
F24653.672480000001
sg63
F3427.9311600000001
sg64
Nsg65
F4324.4257740000003
sg66
Nsg67
F4379.0242859999998
sg68
F3424.094983
sg69
F1454.7716109999999
sg70
F15165.615100000001
sg71
F34180.414100000002
sg72
F1783.5232599999999
sg73
Nsg74
F1136.83403
sg75
Nsg76
F1834.6949119999999
sg77
Nsg78
F882.30635870000003
sg79
F1337.5000319999999
sg80
F1551.2682649999999
sg81
Nsg82
F4110.2057770000001
sg83
F6635.2430350000004
sg84
F20157.318510000001
sg85
F3189.1211199999998
sg86
F20763.159319999999
sg87
Nsg88
Nsg89
F725.98341749999997
sg90
F6629.5237809999999
sg91
Nsg92
F5731.4052840000004
sg93
F699.58377370000005
sg94
F2797.625642
sg95
Nsg96
F6524.7606189999997
sg97
F32014.62688
sg98
F6346.4492490000002
sg99
F2672.74019
sg100
F3292.1128779999999
sg101
F7410.9551760000004
sg102
F5947.6031169999997
sg103
F18918.693429999999
sg104
F51458.087390000001
sg105
Nsg106
F7472.6270189999996
sg107
F26305.796149999998
sg108
F1004.666508
sg109
F372.63973240000001
sg110
F574.12877249999997
sg111
F1947.3267960000001
sg112
F11210.3058
sg113
F630.92056809999997
sg114
Nsg115
F7017.953649
sg116
Nsg117
F608.32505960000003
sg118
F6899.8043969999999
sg119
F6650.1774869999999
sg120
F45975.943359999997
sg121
F1422.8846349999999
sg122
Nsg123
Nsg124
F13275.44728
sg125
Nsg126
F5530.7993509999997
sg127
F14543.33481
sg128
F23313.65422
sg129
F5951.1601449999998
sg130
F3966.9404209999998
sg131
Nsg132
F10392.26678
sg133
Nsg134
F8107.6750860000002
sg135
Nsg136
F25746.416550000002
sg137
F1856.2452169999999
sg138
F1278.022074
sg139
F4915.8350529999998
sg140
F584.1396019
sg141
F2629.3498159999999
sg142
F26127.50576
sg143
F2426.0915669999999
sg144
F2719.9194699999998
sg145
F17090.711200000002
sg146
F2659.2211990000001
sg147
F9973.1157540000004
sg148
F1964.2181210000001
sg149
F1232.3154890000001
sg150
F4523.699149
sg151
F7375.5097450000003
sg152
F6454.2965169999998
sg153
F1888.3482280000001
sg154
Nsg155
F903.95450840000001
sg156
Nsg157
Nsg158
F23697.66416
sg159
F10393.36701
sg160
F26132.85313
sg161
F1691.7610050000001
sg162
F2477.2748339999998
sg163
F825.71482030000004
sg164
F14987.760749999999
sg165
F20354.76281
sg166
F6303.6467270000003
sg167
F701.58711129999995
sg168
F3468.5198329999998
sg169
F14756.70205
sg170
F925.68165429999999
sg171
F24263.707900000001
sg172
Nsg173
F1838.0228830000001
sg174
F1121.443988
sg175
F747.72389320000002
sg176
F27124.555369999998
sg177
F14912.58633
sg178
F26956.394120000001
sg179
F24645.557980000001
sg180
F5305.2967479999998
sg181
Nsg182
Nsg183
F6998.1839
sg184
F18484.96199
sg185
F2269.704573
sg186
F24119.823769999999
sg187
F1165.3694009999999
sg188
F1447.4105970000001
sg189
F2004.6222439999999
sg190
F555.89327739999999
sg191
F10769.286169999999
sg192
Nsg193
F27313.487239999999
sg194
F5941.8195880000003
sg195
F7748.0022040000003
sg196
F450.14192100000002
sg197
Nsg198
F2163.6874590000002
sg199
F6109.6283519999997
sg200
Nsg201
F1790.3645690000001
sg202
F2743.9659299999998
sg203
Nsg204
F2045.6904810000001
sg205
F4837.7699970000003
sg206
F1801.2248030000001
sg207
F477.29801079999999
sg208
F7563.7599849999997
sg209
F7251.1718069999997
sg210
F22020.19772
sg211
F1527.5860290000001
sg212
Nsg213
F17617.74062
sg214
F4034.3296289999998
sg215
F7802.29216
sg216
F1182.008157
ssI1993
(dp249
g3
F26246.134969999999
sg4
Nsg5
F2798.0369780000001
sg6
F1012.7612810000001
sg7
F7809.436882
sg8
F740.00385789999996
sg9
F31994.15726
sg10
F472.6418008
sg11
Nsg12
F3928.6713639999998
sg13
F9569.573112
sg14
F3199.2336380000002
sg15
F25336.7016
sg16
F698.79139680000003
sg17
F955.43489209999996
sg18
F20121.664150000001
sg19
F27453.95133
sg20
Nsg21
Nsg22
Nsg23
F14621.06164
sg24
F3510.3515280000001
sg25
Nsg26
Nsg27
F9343.7906019999991
sg28
F3378.4294439999999
sg29
F7909.4708950000004
sg30
F3413.4274009999999
sg31
F7425.0097930000002
sg32
F138.93980579999999
sg33
Nsg34
F1723.949014
sg35
F15803.9321
sg36
F807.60618390000002
sg37
F2856.3489599999998
sg38
F14499.48691
sg39
Nsg40
F19193.116709999998
sg41
F6984.2201139999997
sg42
Nsg43
F2597.9464320000002
sg44
F9692.0064550000006
sg45
F66132.624559999997
sg46
Nsg47
F8197.2673109999996
sg48
F1271.6699450000001
sg49
F2683.797458
sg50
F958.97125270000004
sg51
F1301.822956
sg52
F1543.9027550000001
sg53
F8753.8504489999996
sg54
Nsg55
F10447.60994
sg56
F792.51347720000001
sg57
F1782.2193070000001
sg58
F2669.4908260000002
sg59
F13615.12291
sg60
Nsg61
Nsg62
F24385.192579999999
sg63
F3504.754543
sg64
Nsg65
F4113.7303879999999
sg66
Nsg67
F4502.4583080000002
sg68
F3350.8110750000001
sg69
F1451.5339449999999
sg70
F15871.8243
sg71
F34924.379139999997
sg72
F1723.61904
sg73
Nsg74
F1136.308184
sg75
Nsg76
F1728.478652
sg77
Nsg78
F734.71522179999999
sg79
F1507.321586
sg80
F1448.1559299999999
sg81
Nsg82
F4323.066597
sg83
F5688.1492829999997
sg84
F22210.259770000001
sg85
F3304.3494919999998
sg86
F20495.424650000001
sg87
Nsg88
Nsg89
F709.80017550000002
sg90
F6884.3380120000002
sg91
Nsg92
F5283.9224160000003
sg93
F667.21069829999999
sg94
F2953.4824309999999
sg95
Nsg96
F6479.6605939999999
sg97
F32502.818190000002
sg98
F6451.1399849999998
sg99
F1947.296026
sg100
F3330.263293
sg101
F7345.6069900000002
sg102
F5951.3997259999996
sg103
F18596.578440000001
sg104
F50189.426140000003
sg105
Nsg106
F8004.802576
sg107
F26227.2065
sg108
F1067.1496139999999
sg109
F390.26927940000002
sg110
F602.02237200000002
sg111
F1645.8093919999999
sg112
F11158.439609999999
sg113
F619.27284159999999
sg114
Nsg115
F7232.8819030000004
sg116
Nsg117
F601.33895910000001
sg118
F7128.1029079999998
sg119
F6973.318491
sg120
F47268.427649999998
sg121
F1485.7887900000001
sg122
Nsg123
Nsg124
F11321.319310000001
sg125
Nsg126
F5431.7079000000003
sg127
F14537.21888
sg128
F24029.99783
sg129
F5694.9654989999999
sg130
F4194.0370229999999
sg131
Nsg132
F11139.026830000001
sg133
Nsg134
F8517.78737
sg135
Nsg136
F25399.35499
sg137
F1880.5160530000001
sg138
F1184.688361
sg139
F5071.4719640000003
sg140
F597.10988310000005
sg141
F1844.717924
sg142
F26017.26885
sg143
F2420.7292849999999
sg144
F2690.1816840000001
sg145
F16720.305820000001
sg146
F2588.793298
sg147
F8836.6458669999993
sg148
F1885.7511509999999
sg149
F1232.666244
sg150
F4859.7926189999998
sg151
F6789.2184139999999
sg152
F6213.6071099999999
sg153
F1867.9777240000001
sg154
Nsg155
F739.34904989999995
sg156
Nsg157
Nsg158
F23075.594580000001
sg159
F10407.455319999999
sg160
F27240.140589999999
sg161
F1615.713718
sg162
F2278.38994
sg163
F818.12753580000003
sg164
F15447.927830000001
sg165
F20082.269919999999
sg166
F6333.6321799999996
sg167
F646.9184692
sg168
F3492.7351800000001
sg169
F14859.938239999999
sg170
F916.85381619999998
sg171
F24042.082780000001
sg172
Nsg173
F1940.9680189999999
sg174
F1142.3567929999999
sg175
F757.47630079999999
sg176
F29482.719379999999
sg177
F15433.64797
sg178
F27105.817040000002
sg179
F25435.296890000001
sg180
F4855.1239260000002
sg181
Nsg182
Nsg183
F6784.1496829999996
sg184
F19000.32933
sg185
F2396.4476549999999
sg186
F24189.409930000002
sg187
F1214.3472959999999
sg188
F1423.962462
sg189
F2310.7237799999998
sg190
F607.2674184
sg191
F10529.28997
sg192
Nsg193
F26862.605360000001
sg194
F5431.0761419999999
sg195
F8017.220703
sg196
F511.26591539999998
sg197
Nsg198
F2284.1449899999998
sg199
F5920.797278
sg200
Nsg201
F1933.9638170000001
sg202
F2838.842697
sg203
Nsg204
F2101.503921
sg205
F4848.059945
sg206
F1750.878389
sg207
F396.5435238
sg208
F5220.0703540000004
sg209
F7188.3708660000002
sg210
F22455.637279999999
sg211
F1528.1076929999999
sg212
Nsg213
F17177.395329999999
sg214
F4091.0400800000002
sg215
F8042.5630590000001
sg216
F1188.4427310000001
ssI1994
(dp250
g3
F27243.911039999999
sg4
Nsg5
F2255.4450940000002
sg6
F1067.114417
sg7
F7095.8381220000001
sg8
F783.34540219999997
sg9
F32118.095229999999
sg10
F472.02609210000003
sg11
Nsg12
F3946.378115
sg13
F9999.0993039999994
sg14
F3272.437449
sg15
F25686.188859999998
sg16
F688.75866659999997
sg17
F960.17480060000003
sg18
F19765.63032
sg19
F27596.858769999999
sg20
Nsg21
Nsg22
Nsg23
F15417.824070000001
sg24
F3568.4840559999998
sg25
F1325.98323
sg26
Nsg27
F8179.4323439999998
sg28
F3411.5756780000002
sg29
F7865.5330270000004
sg30
F3139.9462469999999
sg31
F7513.4466069999999
sg32
F108.20600949999999
sg33
Nsg34
F1743.8312069999999
sg35
F15895.814700000001
sg36
F794.58304529999998
sg37
F3137.6550830000001
sg38
F14579.492410000001
sg39
Nsg40
F19941.100740000002
sg41
F7026.2118879999998
sg42
Nsg43
F2509.2680959999998
sg44
F10252.96488
sg45
F67170.375849999997
sg46
Nsg47
F8730.0937200000008
sg48
F1330.340682
sg49
F2126.1543689999999
sg50
F995.14966159999994
sg51
F1296.156436
sg52
F1197.136229
sg53
F8208.1244659999993
sg54
Nsg55
F9983.7581489999993
sg56
F807.5819563
sg57
F1679.9868819999999
sg58
F2833.8544160000001
sg59
F14645.4064
sg60
Nsg61
Nsg62
F24830.2029
sg63
F3671.7300460000001
sg64
Nsg65
F4288.6059809999997
sg66
Nsg67
F4987.6477830000003
sg68
F3556.450378
sg69
F1418.895338
sg70
F15486.658589999999
sg71
F36480.27029
sg72
F1684.7289679999999
sg73
F2867.7520460000001
sg74
F1146.413196
sg75
Nsg76
F1641.4753040000001
sg77
Nsg78
F826.70157429999995
sg79
F1685.620731
sg80
F1563.387884
sg81
Nsg82
F4340.8078640000003
sg83
F4405.4233620000005
sg84
F21627.931850000001
sg85
F3462.5619790000001
sg86
F21152.89705
sg87
Nsg88
Nsg89
F725.87401820000002
sg90
F7069.4116359999998
sg91
Nsg92
F4671.1780650000001
sg93
F655.61369530000002
sg94
F2880.9263700000001
sg95
Nsg96
F6619.9036779999997
sg97
F33427.711439999999
sg98
F6717.0227189999996
sg99
F1951.7403879999999
sg100
F3405.1852100000001
sg101
F7422.8394090000002
sg102
F5770.6345959999999
sg103
F19290.640370000001
sg104
F50367.590839999997
sg105
Nsg106
F8524.0656010000002
sg107
F26754.048559999999
sg108
F1142.1235489999999
sg109
F401.67124310000003
sg110
F620.54243280000003
sg111
F1315.712041
sg112
F11503.031010000001
sg113
F622.79402089999996
sg114
Nsg115
F7503.3893600000001
sg116
Nsg117
F592.61058109999999
sg118
F7182.4786439999998
sg119
F7128.1595180000004
sg120
F48410.730680000001
sg121
F1546.3323379999999
sg122
Nsg123
Nsg124
F11815.96004
sg125
Nsg126
F5574.9046449999996
sg127
F14854.50433
sg128
F24720.007310000001
sg129
F5525.5163910000001
sg130
F4385.1404000000002
sg131
Nsg132
F11763.031290000001
sg133
Nsg134
F8848.0494400000007
sg135
Nsg136
F26138.303169999999
sg137
F1948.458061
sg138
F1022.64865
sg139
F4935.0414979999996
sg140
F590.21703560000003
sg141
F1669.6965680000001
sg142
F27362.265630000002
sg143
F2469.8668480000001
sg144
F1864.451026
sg145
F16845.365900000001
sg146
F2811.740976
sg147
F9335.2797819999996
sg148
F1911.5795129999999
sg149
F1246.466418
sg150
F5255.7464399999999
sg151
F6637.325785
sg152
F6313.911325
sg153
F1902.6314339999999
sg154
Nsg155
F789.9646219
sg156
Nsg157
Nsg158
F23831.5556
sg159
F10681.85197
sg160
F28235.098999999998
sg161
F1501.9210310000001
sg162
F2221.3867
sg163
F431.25775859999999
sg164
F16018.55457
sg165
F20505.632300000001
sg166
F6581.2102690000002
sg167
F613.47346640000001
sg168
F3619.3582329999999
sg169
F15406.354300000001
sg170
F888.51142540000001
sg171
F24554.230950000001
sg172
Nsg173
F2049.325135
sg174
F1123.935144
sg175
F799.5639486
sg176
F31594.58167
sg177
F16162.367539999999
sg178
F27740.678650000002
sg179
F26074.596310000001
sg180
F4947.0273239999997
sg181
Nsg182
Nsg183
F6660.5621639999999
sg184
F19798.08049
sg185
F2538.2813639999999
sg186
F24846.06061
sg187
F1082.27118
sg188
F1383.8425629999999
sg189
F2386.4998690000002
sg190
F542.26283430000001
sg191
F10822.454589999999
sg192
Nsg193
F27431.269799999998
sg194
F4816.1311310000001
sg195
F8423.7623810000005
sg196
F618.68959849999999
sg197
Nsg198
F2379.026312
sg199
F6152.5841380000002
sg200
Nsg201
F2094.0553759999998
sg202
F2731.3481649999999
sg203
Nsg204
F2135.333149
sg205
F4912.4967619999998
sg206
F1767.18181
sg207
F367.06409230000003
sg208
F5326.1302589999996
sg209
F7254.6607510000003
sg210
F23357.25203
sg211
F1487.9029230000001
sg212
Nsg213
F17375.657520000001
sg214
F4143.7079659999999
sg215
F8389.1196639999998
sg216
F1098.578583
ssI1995
(dp251
g3
F27778.035779999998
sg4
Nsg5
F2046.825073
sg6
F1114.2465560000001
sg7
F7385.9302189999999
sg8
F810.88490300000001
sg9
F32015.924330000002
sg10
F485.4830182
sg11
Nsg12
F4054.4443879999999
sg13
F9593.4171060000008
sg14
F3349.0989770000001
sg15
F26394.251459999999
sg16
F708.30599830000006
sg17
F973.66257510000003
sg18
F19404.90927
sg19
F28025.68089
sg20
Nsg21
Nsg22
Nsg23
F15975.98179
sg24
F3660.0458920000001
sg25
F1664.2489129999999
sg26
F41617.702879999997
sg27
F7850.8358179999996
sg28
F3506.7900479999998
sg29
F7970.6356750000004
sg30
F3177.4043550000001
sg31
F7660.3129479999998
sg32
F100.88601199999999
sg33
F3230.2738239999999
sg34
F1784.0188869999999
sg35
F16320.71473
sg36
F798.83063609999999
sg37
F3598.3547610000001
sg38
F14859.58735
sg39
Nsg40
F20501.749110000001
sg41
F7133.3362520000001
sg42
Nsg43
F2648.4469549999999
sg44
F10820.3861
sg45
F68136.519709999993
sg46
Nsg47
F8542.1692129999992
sg48
F1404.2313469999999
sg49
F1853.794686
sg50
F994.22951339999997
sg51
F1314.640549
sg52
F1033.5187880000001
sg53
F8711.3697370000009
sg54
Nsg55
F10161.705459999999
sg56
F829.84468300000003
sg57
F1793.764248
sg58
F2982.5258450000001
sg59
F15761.31639
sg60
Nsg61
Nsg62
F25234.37817
sg63
F3783.727973
sg64
Nsg65
F4336.6158459999997
sg66
Nsg67
F5320.9441070000003
sg68
F3506.8405419999999
sg69
F1420.497891
sg70
F15077.45823
sg71
F37810.650070000003
sg72
F1752.733862
sg73
F2906.9393289999998
sg74
F1161.440801
sg75
Nsg76
F1652.9937950000001
sg77
Nsg78
F869.15393640000002
sg79
F1849.152636
sg80
F1706.1923830000001
sg81
Nsg82
F4497.4946810000001
sg83
F3898.6534320000001
sg84
F21925.47795
sg85
F3583.0002749999999
sg86
F21907.300660000001
sg87
Nsg88
Nsg89
F759.37072450000005
sg90
F7309.4023550000002
sg91
Nsg92
F4198.9244369999997
sg93
F677.87327809999999
sg94
F3052.7033249999999
sg95
Nsg96
F6839.6413839999996
sg97
F33873.996350000001
sg98
F7212.5327280000001
sg99
F2090.2591990000001
sg100
F3504.0348720000002
sg101
F7490.3909290000001
sg102
F5828.5503939999999
sg103
F20099.63565
sg104
F51239.929609999999
sg105
Nsg106
F9129.055558
sg107
F27425.8194
sg108
F1230.738797
sg109
F398.95123000000001
sg110
F670.86530270000003
sg111
F1231.989611
sg112
F11690.635969999999
sg113
F617.65273279999997
sg114
Nsg115
F7716.2201889999997
sg116
Nsg117
F594.04869940000003
sg118
F7160.8040529999998
sg119
F7227.372985
sg120
F48419.105819999997
sg121
F1620.742328
sg122
Nsg123
Nsg124
F12762.138070000001
sg125
Nsg126
F5567.5977190000003
sg127
F15746.155129999999
sg128
F25385.45046
sg129
F5625.910457
sg130
F4608.9586200000003
sg131
Nsg132
F12249.584790000001
sg133
Nsg134
F9629.0681330000007
sg135
Nsg136
F26705.64817
sg137
F1898.001577
sg138
F1102.0566710000001
sg139
F4840.64365
sg140
F545.33807439999998
sg141
F1759.2836769999999
sg142
F28054.432720000001
sg143
F2527.473019
sg144
F1847.803322
sg145
F17520.763869999999
sg146
F2586.8317950000001
sg147
F9925.0307219999995
sg148
F2017.8089210000001
sg149
F1275.4221379999999
sg150
F5690.8620140000003
sg151
F6531.2256809999999
sg152
F6417.0852080000004
sg153
F1928.4900270000001
sg154
Nsg155
F775.47549489999994
sg156
F7938.0726249999998
sg157
Nsg158
F24640.540260000002
sg159
F9845.9680690000005
sg160
F28316.31882
sg161
F1461.751614
sg162
F2098.3270849999999
sg163
F591.34089119999999
sg164
F14958.829809999999
sg165
F21021.829430000002
sg166
F6799.1186189999999
sg167
F558.4248503
sg168
F3662.3673659999999
sg169
F15589.689350000001
sg170
F876.11501350000003
sg171
F25262.670190000001
sg172
Nsg173
F2193.2956610000001
sg174
F1160.7431670000001
sg175
F806.96455619999995
sg176
F32879.586230000001
sg177
F17071.840260000001
sg178
F28464.132290000001
sg179
F26494.282090000001
sg180
F4934.7517850000004
sg181
Nsg182
Nsg183
F6728.7258609999999
sg184
F20535.163
sg185
F2711.2251070000002
sg186
F24740.45334
sg187
F1024.9872519999999
sg188
F1418.693595
sg189
F2248.6544610000001
sg190
F625.85611159999996
sg191
F11175.16272
sg192
Nsg193
F27809.439979999999
sg194
F4499.3620019999998
sg195
F8997.1509470000001
sg196
F631.1365141
sg197
Nsg198
F2475.9667800000002
sg199
F6181.9748079999999
sg200
Nsg201
F2194.1620539999999
sg202
F2773.7976950000002
sg203
Nsg204
F2359.8193729999998
sg205
F4948.2589349999998
sg206
F1830.7915419999999
sg207
F357.74683160000001
sg208
F5647.8497580000003
sg209
F7386.7877550000003
sg210
F24006.59863
sg211
F1459.427308
sg212
Nsg213
F17604.787909999999
sg214
F4269.3585149999999
sg215
F8684.2086120000004
sg216
F1110.4206859999999
ssI1996
(dp252
g3
F27925.279450000002
sg4
Nsg5
F1874.032925
sg6
F1164.0504410000001
sg7
F7828.0126819999996
sg8
F833.16818850000004
sg9
F32075.15207
sg10
F529.7228212
sg11
Nsg12
F4120.2484590000004
sg13
F9999.6913459999996
sg14
F3418.8799140000001
sg15
F27130.534879999999
sg16
F764.86132229999998
sg17
F993.21311720000006
sg18
F19746.91791
sg19
F28683.536270000001
sg20
Nsg21
Nsg22
Nsg23
F16569.099969999999
sg24
F3683.438208
sg25
F3169.8652430000002
sg26
F41864.168060000004
sg27
F7588.7989280000002
sg28
F3472.351154
sg29
F8309.5789440000008
sg30
F3222.739102
sg31
F7882.5639899999996
sg32
F107.5088014
sg33
F3450.8650170000001
sg34
F1821.972972
sg35
F16618.944240000001
sg36
F812.41370329999995
sg37
F3961.7573750000001
sg38
F14972.914930000001
sg39
Nsg40
F20906.289069999999
sg41
F7040.2761739999996
sg42
Nsg43
F2812.48684
sg44
F11547.00135
sg45
F68432.141159999999
sg46
Nsg47
F8984.7869250000003
sg48
F1482.4738769999999
sg49
F1859.0255729999999
sg50
F1020.948843
sg51
F1331.9609029999999
sg52
F848.44438109999999
sg53
F9204.5440299999991
sg54
Nsg55
F9934.7315170000002
sg56
F850.52341980000006
sg57
F1845.3063239999999
sg58
F2948.0240330000001
sg59
F16704.359970000001
sg60
Nsg61
Nsg62
F25400.045829999999
sg63
F3855.6080419999998
sg64
Nsg65
F4344.6297139999997
sg66
Nsg67
F5360.1155440000002
sg68
F3514.964003
sg69
F1447.3267289999999
sg70
F15588.49648
sg71
F39537.984880000004
sg72
F1836.5655380000001
sg73
F2860.2461199999998
sg74
F1189.8978870000001
sg75
Nsg76
F1693.473207
sg77
Nsg78
F918.25349749999998
sg79
F2012.8593310000001
sg80
F1835.300377
sg81
Nsg82
F4735.4036900000001
sg83
F3540.064453
sg84
F22197.500029999999
sg85
F3572.6008900000002
sg86
F22614.962759999999
sg87
Nsg88
Nsg89
F712.14495599999998
sg90
F7639.3073009999998
sg91
Nsg92
F4330.9392820000003
sg93
F681.09378600000002
sg94
F2939.720859
sg95
Nsg96
F6254.1897220000001
sg97
F34749.845950000003
sg98
F7523.3218010000001
sg99
F2259.4830830000001
sg100
F3617.2549560000002
sg101
F7641.0465919999997
sg102
F5908.7391319999997
sg103
F20147.548760000001
sg104
F51371.312709999998
sg105
Nsg106
F9793.4616060000008
sg107
F28064.39862
sg108
F1324.330179
sg109
F415.95737409999998
sg110
F709.83277629999998
sg111
F1299.8873599999999
sg112
F11729.574790000001
sg113
F617.1655634
sg114
Nsg115
F7762.4855049999996
sg116
Nsg117
F605.81342240000004
sg118
F7214.4009770000002
sg119
F7110.7022569999999
sg120
F48489.346660000003
sg121
F1689.78322
sg122
Nsg123
Nsg124
F13739.036679999999
sg125
Nsg126
F5603.0465899999999
sg127
F16480.148700000002
sg128
F26101.731540000001
sg129
F5755.8131830000002
sg130
F4640.649934
sg131
Nsg132
F13092.63702
sg133
Nsg134
F10186.437379999999
sg135
Nsg136
F27033.174800000001
sg137
F1982.094519
sg138
F1125.595043
sg139
F4788.1637579999997
sg140
F572.63229969999998
sg141
F2006.290029
sg142
F28686.841639999999
sg143
F2615.700836
sg144
F1755.2283890000001
sg145
F18117.343199999999
sg146
F2860.437735
sg147
F10921.99136
sg148
F2045.842202
sg149
F1395.451949
sg150
F5965.8948440000004
sg151
F6575.7911759999997
sg152
F6641.3821319999997
sg153
F1945.6846379999999
sg154
Nsg155
F768.38556649999998
sg156
F8530.549685
sg157
Nsg158
F24997.983980000001
sg159
F10177.148730000001
sg160
F28222.68462
sg161
F1458.437576
sg162
F1956.0947060000001
sg163
F639.87398870000004
sg164
F15557.219059999999
sg165
F21480.209470000002
sg166
F6815.6331449999998
sg167
F509.27397100000002
sg168
F3793.8372589999999
sg169
F15826.280220000001
sg170
F867.32570840000005
sg171
F25542.142370000001
sg172
Nsg173
F2320.4452510000001
sg174
F1198.12716
sg175
F829.11726339999996
sg176
F33977.735079999999
sg177
F17609.550940000001
sg178
F29298.275420000002
sg179
F25972.280170000002
sg180
F4929.8766189999997
sg181
Nsg182
Nsg183
F7081.0765860000001
sg184
F21103.10111
sg185
F2877.2179139999998
sg186
F25784.707989999999
sg187
F1067.168455
sg188
F1409.7211480000001
sg189
F2359.9634219999998
sg190
F659.15924199999995
sg191
F11548.3897
sg192
Nsg193
F27948.331340000001
sg194
F4590.8662850000001
sg195
F9551.2069410000004
sg196
F678.89753259999998
sg197
Nsg198
F2542.0206480000002
sg199
F6489.0080159999998
sg200
Nsg201
F2363.855223
sg202
F2807.3036849999999
sg203
Nsg204
F2948.929427
sg205
F5224.985447
sg206
F1907.400453
sg207
F344.48935710000001
sg208
F6112.1612960000002
sg209
F7614.1190809999998
sg210
F24636.45522
sg211
F1450.5019540000001
sg212
Nsg213
F17894.13624
sg214
F4190.605485
sg215
F8933.7878509999991
sg216
F1068.893141
ssI1997
(dp253
g3
F28799.350350000001
sg4
Nsg5
F1636.082991
sg6
F1217.1097070000001
sg7
F8474.9987810000002
sg8
F859.56232369999998
sg9
F32662.150010000001
sg10
F530.9022721
sg11
Nsg12
F4154.457058
sg13
F10681.27274
sg14
F3511.6083610000001
sg15
F27348.747169999999
sg16
F790.91158150000001
sg17
F1010.198519
sg18
F20009.472089999999
sg19
F29064.951809999999
sg20
Nsg21
Nsg22
Nsg23
F17413.883590000001
sg24
F3757.96693
sg25
F4184.0953840000002
sg26
F41604.24452
sg27
F7717.7661619999999
sg28
F3479.3437990000002
sg29
F8197.9609459999992
sg30
F3113.951787
sg31
F8038.2466189999996
sg32
F207.04686770000001
sg33
F3735.729202
sg34
F1792.2194440000001
sg35
F17561.480080000001
sg36
F819.56354260000001
sg37
F3581.4705509999999
sg38
F15415.763419999999
sg39
Nsg40
F20998.416280000001
sg41
F6893.6681479999997
sg42
Nsg43
F2805.423984
sg44
F12037.622950000001
sg45
F70135.393509999994
sg46
Nsg47
F9690.9796989999995
sg48
F1514.754156
sg49
F1947.9666030000001
sg50
F1035.6615019999999
sg51
F1303.4623570000001
sg52
F850.55346510000004
sg53
F9745.4405079999997
sg54
Nsg55
F10357.31655
sg56
F878.4605497
sg57
F1721.2471190000001
sg58
F2827.2687270000001
sg59
F17318.077369999999
sg60
Nsg61
Nsg62
F25849.400809999999
sg63
F3835.8110820000002
sg64
Nsg65
F4396.317231
sg66
Nsg67
F5630.813787
sg68
F3621.5076869999998
sg69
F1452.2271940000001
sg70
F17249.516080000001
sg71
F41444.789669999998
sg72
F1891.1909310000001
sg73
F3080.99782
sg74
F1228.0168980000001
sg75
Nsg76
F1737.9431239999999
sg77
F7139.2435450000003
sg78
F1016.319737
sg79
F2177.653613
sg80
F1918.8444549999999
sg81
Nsg82
F5029.6088369999998
sg83
F3465.2923999999998
sg84
F22186.647540000002
sg85
F3554.7813849999998
sg86
F23947.080310000001
sg87
Nsg88
Nsg89
F733.19149560000005
sg90
F7973.329686
sg91
Nsg92
F4845.1725040000001
sg93
F707.61134890000005
sg94
F2763.734856
sg95
Nsg96
F6188.8381559999998
sg97
F35880.978669999997
sg98
F7084.5574079999997
sg99
F2373.2770479999999
sg100
F3751.7444310000001
sg101
F7665.8587980000002
sg102
F6697.448198
sg103
F20330.480920000002
sg104
F49363.476730000002
sg105
Nsg106
F10252.739600000001
sg107
F28679.863099999999
sg108
F1410.1201940000001
sg109
F446.32220999999998
sg110
F724.12879710000004
sg111
F1408.08592
sg112
F12120.77382
sg113
F612.49543119999998
sg114
Nsg115
F7902.9624750000003
sg116
Nsg117
F619.97595379999996
sg118
F7527.5558890000002
sg119
F7319.7461439999997
sg120
F50729.262179999998
sg121
F1780.428866
sg122
Nsg123
Nsg124
F13723.086660000001
sg125
Nsg126
F5736.1001480000004
sg127
F16357.26894
sg128
F26836.694609999999
sg129
F5728.3741129999999
sg130
F4798.1719089999997
sg131
Nsg132
F14023.63737
sg133
Nsg134
F10706.17643
sg135
Nsg136
F27975.049749999998
sg137
F2057.0015389999999
sg138
F1134.1278649999999
sg139
F4785.4638169999998
sg140
F474.88501389999999
sg141
F2258.6787049999998
sg142
F29481.60699
sg143
F2690.7171349999999
sg144
F1787.255678
sg145
F18853.422879999998
sg146
F2757.3952629999999
sg147
F11438.161270000001
sg148
F2107.2134820000001
sg149
F1457.3236340000001
sg150
F5818.8369259999999
sg151
F6637.8263319999996
sg152
F6924.6452730000001
sg153
F1982.2665440000001
sg154
F3138.3908379999998
sg155
F786.81164869999998
sg156
F9641.0974499999993
sg157
Nsg158
F25660.33598
sg159
F10686.473330000001
sg160
F29403.887460000002
sg161
F1505.6225019999999
sg162
F1879.327479
sg163
F671.36235520000002
sg164
F15894.959279999999
sg165
F22252.463950000001
sg166
F6925.8087820000001
sg167
F497.83330740000002
sg168
F3670.8349490000001
sg169
F16784.27233
sg170
F871.41818239999998
sg171
F26004.999660000001
sg172
Nsg173
F2410.0533970000001
sg174
F1291.1401619999999
sg175
F849.71191220000003
sg176
F35651.415489999999
sg177
F18409.370050000001
sg178
F30394.91951
sg179
F25501.14446
sg180
F5142.1369359999999
sg181
Nsg182
Nsg183
F7186.0484909999996
sg184
F21276.333839999999
sg185
F2971.21621
sg186
F26830.859219999998
sg187
F1072.3859910000001
sg188
F1417.33205
sg189
F2208.6057770000002
sg190
F667.68046319999996
sg191
F11799.2536
sg192
Nsg193
F28392.299620000002
sg194
F4743.2640270000002
sg195
F10221.33965
sg196
F716.74314619999996
sg197
Nsg198
F2671.0516160000002
sg199
F7096.8664630000003
sg200
Nsg201
F2508.4601889999999
sg202
F2882.3352249999998
sg203
Nsg204
F4886.1844810000002
sg205
F5434.123028
sg206
F1945.3994729999999
sg207
F317.60632479999998
sg208
F6781.6104180000002
sg209
F8202.3764260000007
sg210
F26098.417000000001
sg211
F1479.617911
sg212
Nsg213
F18429.186320000001
sg214
F4221.7428470000004
sg215
F8588.2289490000003
sg216
F1083.9916539999999
ssI1998
(dp254
g3
F29720.99855
sg4
Nsg5
F1722.147279
sg6
F1239.6341849999999
sg7
F9187.8606029999992
sg8
F883.41969229999995
sg9
F33424.504789999999
sg10
F498.59080219999998
sg11
Nsg12
F4257.0637580000002
sg13
F10963.67841
sg14
F3610.9946209999998
sg15
F28308.073820000001
sg16
F825.37193449999995
sg17
F1033.042841
sg18
F20324.465609999999
sg19
F28410.860690000001
sg20
Nsg21
Nsg22
Nsg23
F18065.328310000001
sg24
F3856.710137
sg25
F4677.4499599999999
sg26
F41052.208720000002
sg27
F7328.8746819999997
sg28
F3476.351075
sg29
F8587.6222789999993
sg30
F3139.5823529999998
sg31
F8489.5651880000005
sg32
F249.48141039999999
sg33
F4025.8753160000001
sg34
F1790.549207
sg35
F18053.392739999999
sg36
F829.11818389999996
sg37
F4053.1820720000001
sg38
F15552.130939999999
sg39
Nsg40
F20901.72308
sg41
F6672.9262369999997
sg42
Nsg43
F2843.1886140000001
sg44
F12545.74014
sg45
F66667.149430000005
sg46
Nsg47
F10074.465910000001
sg48
F1580.1435349999999
sg49
F2122.5216919999998
sg50
F1071.9689049999999
sg51
F1312.2723309999999
sg52
F883.37513469999999
sg53
F9815.4502929999999
sg54
Nsg55
F10186.344129999999
sg56
F906.36220800000001
sg57
F1748.6155779999999
sg58
F2800.388226
sg59
F16014.966350000001
sg60
Nsg61
Nsg62
F26608.788550000001
sg63
F3986.6242240000001
sg64
Nsg65
F4413.3496240000004
sg66
Nsg67
F5501.9204849999996
sg68
F3713.0734990000001
sg69
F1445.478946
sg70
F18336.919379999999
sg71
F42304.015829999997
sg72
F1932.8570749999999
sg73
F3334.4685960000002
sg74
F1249.024713
sg75
Nsg76
F1783.5550330000001
sg77
F7526.8334269999996
sg78
F959.66690930000004
sg79
F2325.0927750000001
sg80
F2075.9624250000002
sg81
Nsg82
F5295.5397160000002
sg83
F3429.9703330000002
sg84
F22555.18217
sg85
F3635.801516
sg86
F25085.185089999999
sg87
Nsg88
Nsg89
F751.35278579999999
sg90
F8368.9041990000005
sg91
Nsg92
F5277.2046360000004
sg93
F729.81260110000005
sg94
F2848.0106350000001
sg95
Nsg96
F6533.1507359999996
sg97
F37026.108010000004
sg98
F6759.249476
sg99
F2468.013528
sg100
F3836.8630250000001
sg101
F7526.4680319999998
sg102
F7048.7545950000003
sg103
F21095.550999999999
sg104
F47910.17151
sg105
Nsg106
F9268.0241929999993
sg107
F29732.908230000001
sg108
F1468.687868
sg109
F482.06278809999998
sg110
F737.46001960000001
sg111
F1416.072613
sg112
F12643.894179999999
sg113
F653.100371
sg114
Nsg115
F7787.3947840000001
sg116
Nsg117
F639.48472330000004
sg118
F7920.9109829999998
sg119
F7738.6302420000002
sg120
F53353.7477
sg121
F1892.134438
sg122
Nsg123
Nsg124
F13695.25842
sg125
Nsg126
F5766.4010939999998
sg127
F16334.13824
sg128
F27776.291079999999
sg129
F5933.1206819999998
sg130
F4945.05357
sg131
Nsg132
F14399.62104
sg133
Nsg134
F10905.746429999999
sg135
Nsg136
F28453.842939999999
sg137
F2244.115632
sg138
F1137.3576109999999
sg139
F4787.5545089999996
sg140
F466.1410793
sg141
F2351.7992319999998
sg142
F30009.363310000001
sg143
F2616.893642
sg144
F1674.233379
sg145
F19747.47667
sg146
F2928.3267329999999
sg147
F11848.262269999999
sg148
F2158.0177899999999
sg149
F1027.6547579999999
sg150
F5145.9140600000001
sg151
F6829.6935549999998
sg152
F7364.5293789999996
sg153
F2039.7525049999999
sg154
F4104.6322650000002
sg155
F815.10711830000002
sg156
F10397.017669999999
sg157
Nsg158
F26724.501509999998
sg159
F11030.446
sg160
F27402.18218
sg161
F1545.2917210000001
sg162
F1817.886988
sg163
F662.80730289999997
sg164
F16177.704019999999
sg165
F23165.56868
sg166
F6844.9441500000003
sg167
F517.95928470000001
sg168
F3683.6312830000002
sg169
F17418.453539999999
sg170
F877.50107920000005
sg171
F26374.00506
sg172
Nsg173
F2486.4567860000002
sg174
F1313.023498
sg175
F854.14095440000006
sg176
F33712.472500000003
sg177
F19236.0795
sg178
F31393.271479999999
sg179
F23955.974320000001
sg180
F5150.9281300000002
sg181
Nsg182
Nsg183
F7245.3106349999998
sg184
F21651.518690000001
sg185
F2546.719474
sg186
F28221.86924
sg187
F1023.763056
sg188
F1463.9460300000001
sg189
F2069.6988700000002
sg190
F674.52113480000003
sg191
F12657.051369999999
sg192
Nsg193
F28916.54191
sg194
F4734.1567880000002
sg195
F10726.69355
sg196
F709.63719200000003
sg197
Nsg198
F2764.3903070000001
sg199
F7502.4451710000003
sg200
Nsg201
F2463.1880369999999
sg202
F2902.6000589999999
sg203
Nsg204
F5766.9582490000003
sg205
F5631.6437749999996
sg206
F1981.8328100000001
sg207
F305.8244426
sg208
F6902.9748380000001
sg209
F8882.1627360000002
sg210
F27021.47898
sg211
F1489.040512
sg212
Nsg213
F18946.453460000001
sg214
F4155.5452020000002
sg215
F8782.4659499999998
sg216
F1069.9151629999999
ssI1999
(dp255
g3
F31106.65914
sg4
Nsg5
F1981.141275
sg6
F1304.7090189999999
sg7
F9153.9699970000001
sg8
F969.36178319999999
sg9
F33701.631240000002
sg10
F510.41799859999998
sg11
Nsg12
F4376.9491349999998
sg13
F10474.704390000001
sg14
F3551.747421
sg15
F29977.91102
sg16
F861.96692259999998
sg17
F1053.454862
sg18
F19840.293129999998
sg19
F28300.496370000001
sg20
Nsg21
Nsg22
Nsg23
F19013.83164
sg24
F3913.4192360000002
sg25
F4954.029305
sg26
F38287.495739999998
sg27
F7829.368262
sg28
F3530.4203349999998
sg29
F8690.0302969999993
sg30
F2975.7775940000001
sg31
F8598.3689919999997
sg32
F287.3710112
sg33
F4240.761767
sg34
F1810.717347
sg35
F18059.358840000001
sg36
F848.13432339999997
sg37
F4471.7204499999998
sg38
F13823.461740000001
sg39
Nsg40
F21868.048340000001
sg41
F6696.9745940000003
sg42
Nsg43
F2881.0637660000002
sg44
F12537.673650000001
sg45
F65250.276160000001
sg46
Nsg47
F9833.9163329999992
sg48
F1684.453317
sg49
F2259.6701880000001
sg50
F1057.438328
sg51
F1308.7775079999999
sg52
F904.56594710000002
sg53
F9341.4043559999991
sg54
Nsg55
F9395.9759419999991
sg56
F932.47744499999999
sg57
F1830.3582309999999
sg58
F2711.7325740000001
sg59
F17410.073840000001
sg60
Nsg61
Nsg62
F27395.590800000002
sg63
F3752.9803069999998
sg64
Nsg65
F4442.7555659999998
sg66
Nsg67
F5465.1702580000001
sg68
F3657.814331
sg69
F1427.4945580000001
sg70
F18316.851900000001
sg71
F42866.462189999998
sg72
F1919.478341
sg73
F3502.958157
sg74
F1271.586493
sg75
Nsg76
F1819.6560609999999
sg77
F6858.1443920000002
sg78
F951.64046450000001
sg79
F2480.2314670000001
sg80
F2157.2896890000002
sg81
F1041.4211580000001
sg82
F5561.9692809999997
sg83
F3455.5398260000002
sg84
F22942.2258
sg85
F3758.9069359999999
sg86
F26005.174940000001
sg87
F12401.96751
sg88
Nsg89
F762.82549310000002
sg90
F8478.9216290000004
sg91
Nsg92
F5475.1174270000001
sg93
F757.14916470000003
sg94
F2904.298151
sg95
Nsg96
F6698.9233679999998
sg97
F38385.536119999997
sg98
F6688.6296940000002
sg99
F2477.5745440000001
sg100
F4000.799422
sg101
F7520.1988190000002
sg102
F7361.8428160000003
sg103
F21871.897860000001
sg104
F48223.621299999999
sg105
Nsg106
F9602.3124669999997
sg107
F30725.355439999999
sg108
F1515.8867809999999
sg109
F508.25173139999998
sg110
F773.31503989999999
sg111
F1446.1893439999999
sg112
F13085.220240000001
sg113
F627.07474669999999
sg114
Nsg115
F7692.2093059999997
sg116
Nsg117
F660.12817219999999
sg118
F8071.2004260000003
sg119
F8176.168729
sg120
F57068.771430000001
sg121
F2076.7311599999998
sg122
Nsg123
Nsg124
F12712.743340000001
sg125
Nsg126
F5319.2648749999998
sg127
F16625.41388
sg128
F28877.686259999999
sg129
F6036.4594630000001
sg130
F5087.0456119999999
sg131
Nsg132
F14386.340389999999
sg133
Nsg134
F10686.06343
sg135
Nsg136
F29393.577969999998
sg137
F2235.7271780000001
sg138
F1147.1544610000001
sg139
F5109.373842
sg140
F420.35551179999999
sg141
F2438.187066
sg142
F30676.067490000001
sg143
F2639.4811300000001
sg144
F1619.869113
sg145
F20465.631560000002
sg146
F2905.4604210000002
sg147
F11588.246450000001
sg148
F2203.8233570000002
sg149
F1086.5851009999999
sg150
F5310.3439529999996
sg151
F7094.8048680000002
sg152
F8095.5240700000004
sg153
F2056.2883649999999
sg154
F4970.1120810000002
sg155
F783.34627369999998
sg156
F10447.97286
sg157
Nsg158
F27948.032350000001
sg159
F11281.85771
sg160
F27835.431039999999
sg161
F1594.4562109999999
sg162
F1798.4173989999999
sg163
F652.99089100000003
sg164
F16446.566459999998
sg165
F24140.307089999998
sg166
F6445.9093039999998
sg167
F507.82008180000003
sg168
F3976.788489
sg169
F17815.323540000001
sg170
F889.92877320000002
sg171
F26752.216
sg172
Nsg173
F2586.0373920000002
sg174
F1320.539473
sg175
F870.48212550000005
sg176
F35516.67931
sg177
F20046.100780000001
sg178
F32645.871459999998
sg179
F23003.169160000001
sg180
F5036.3984140000002
sg181
Nsg182
Nsg183
F7253.8327330000002
sg184
F21815.465939999998
sg185
F2533.0891710000001
sg186
F29024.215219999998
sg187
F1018.85378
sg188
F1518.2553780000001
sg189
F2053.231241
sg190
F675.32059089999996
sg191
F13156.304770000001
sg192
Nsg193
F29438.559730000001
sg194
F4908.5111690000003
sg195
F11212.921410000001
sg196
F687.35328979999997
sg197
Nsg198
F2842.119862
sg199
F7919.1891850000002
sg200
Nsg201
F2532.7426970000001
sg202
F2788.2964040000002
sg203
Nsg204
F7898.8160539999999
sg205
F5893.1185189999997
sg206
F2086.085446
sg207
F286.37990120000001
sg208
F6152.0704990000004
sg209
F9156.1006870000001
sg210
F27916.07171
sg211
F1540.0391139999999
sg212
Nsg213
F19508.42208
sg214
F4008.2635420000001
sg215
F8634.0155149999991
sg216
F1062.416256
ssI2000
(dp256
g3
F32446.787079999998
sg4
Nsg5
F2322.3567079999998
sg6
F1355.407271
sg7
F9518.2552489999998
sg8
F1035.4933799999999
sg9
F34713.236980000001
sg10
F527.30460879999998
sg11
Nsg12
F4448.1613070000003
sg13
F10282.40569
sg14
F3566.9936849999999
sg15
F30837.542130000002
sg16
F853.44398000000001
sg17
F1066.7932989999999
sg18
F20321.400559999998
sg19
F28889.196169999999
sg20
Nsg21
Nsg22
Nsg23
F19766.26283
sg24
F3959.8287540000001
sg25
F5095.9550579999996
sg26
F38358.902130000002
sg27
F8612.6582859999999
sg28
F3590.5178839999999
sg29
F8561.8811420000002
sg30
F3119.9056300000002
sg31
F8444.3776639999996
sg32
F343.93004050000002
sg33
F4367.59872
sg34
F1845.2563050000001
sg35
F18994.752779999999
sg36
F868.05319210000005
sg37
F4799.5133980000001
sg38
F13251.210010000001
sg39
Nsg40
F22309.674599999998
sg41
F6716.4267470000004
sg42
Nsg43
F3059.3672489999999
sg44
F12726.45514
sg45
F69078.059179999997
sg46
Nsg47
F9608.9851839999992
sg48
F1722.0973039999999
sg49
F2489.953857
sg50
F1100.487226
sg51
F1283.280647
sg52
F968.76754129999995
sg53
F9827.6254730000001
sg54
Nsg55
F9564.4715830000005
sg56
F969.78496029999997
sg57
F1770.7576079999999
sg58
F2261.6721819999998
sg59
F18730.4251
sg60
Nsg61
Nsg62
F28209.95217
sg63
F3755.6655179999998
sg64
Nsg65
F4489.0790429999997
sg66
Nsg67
F5543.0335519999999
sg68
F3794.1479159999999
sg69
F1469.252702
sg70
F18926.200639999999
sg71
F43974.798340000001
sg72
F1810.6897120000001
sg73
F3195.309471
sg74
F1306.464565
sg75
Nsg76
F1853.2435149999999
sg77
F7105.2060929999998
sg78
F916.06684759999996
sg79
F2667.4693830000001
sg80
F2295.358013
sg81
F1174.113161
sg82
F5785.0716000000002
sg83
F3696.4382719999999
sg84
F23725.56667
sg85
F3865.5802010000002
sg86
F27332.82213
sg87
F12622.698399999999
sg88
Nsg89
F765.75647800000002
sg90
F9153.884693
sg91
Nsg92
F5810.043576
sg93
F758.85393820000002
sg94
F3038.2181759999999
sg95
Nsg96
F7117.5684600000004
sg97
F39544.955549999999
sg98
F6837.9363350000003
sg99
F2476.1834899999999
sg100
F4141.3268710000002
sg101
F7640.9969170000004
sg102
F7492.6515399999998
sg103
F22731.772730000001
sg104
F48478.174319999998
sg105
F64828.607470000003
sg106
F10208.68074
sg107
F31775.73316
sg108
F1597.209472
sg109
F500.6794021
sg110
F773.54538930000001
sg111
F1506.616321
sg112
F13673.574930000001
sg113
F597.0553099
sg114
Nsg115
F7909.1058080000003
sg116
Nsg117
F663.01469610000004
sg118
F8131.9392159999998
sg119
F8137.2047080000002
sg120
F61061.166069999999
sg121
F2187.091496
sg122
Nsg123
F33424.407879999999
sg124
F12554.018389999999
sg125
Nsg126
F5381.1679649999996
sg127
F17340.751090000002
sg128
F29662.9653
sg129
F6081.4082360000002
sg130
F5171.0098779999998
sg131
Nsg132
F14110.60771
sg133
Nsg134
F11029.44426
sg135
Nsg136
F30398.446810000001
sg137
F2355.2139529999999
sg138
F1137.0288230000001
sg139
F5620.6639219999997
sg140
F424.26292089999998
sg141
F2502.2290790000002
sg142
F31652.549889999998
sg143
F2697.4387230000002
sg144
F1657.25404
sg145
F21154.896239999998
sg146
F2914.650357
sg147
F12370.55168
sg148
F2208.2749680000002
sg149
F1145.71549
sg150
F5496.8482459999996
sg151
F7388.335521
sg152
F9101.819442
sg153
F2119.9989399999999
sg154
F4614.8273079999999
sg155
F750.45379400000002
sg156
F11512.50683
sg157
Nsg158
F29145.494460000002
sg159
F11852.719590000001
sg160
F29785.024069999999
sg161
F1632.3049860000001
sg162
F1755.6755089999999
sg163
F660.95165050000003
sg164
F16330.941419999999
sg165
F25147.12499
sg166
F6618.8680189999995
sg167
F496.306128
sg168
F3886.1099290000002
sg169
F18175.86709
sg170
F903.64336619999995
sg171
F27717.074229999998
sg172
Nsg173
F2703.1185270000001
sg174
F1396.902358
sg175
F902.6584507
sg176
F38063.06351
sg177
F21290.846160000001
sg178
F33690.782870000003
sg179
F23887.87314
sg180
F4963.9561059999996
sg181
Nsg182
Nsg183
F7502.715158
sg184
F23212.922869999999
sg185
F2623.0377450000001
sg186
F29867.655839999999
sg187
F1028.787448
sg188
F1527.1458399999999
sg189
F1950.544302
sg190
F667.24064850000002
sg191
F13907.25129
sg192
Nsg193
F30297.62732
sg194
F5405.7678450000003
sg195
F11753.353440000001
sg196
F576.37883710000006
sg197
Nsg198
F3005.3922240000002
sg199
F8529.1434929999996
sg200
Nsg201
F2492.4040749999999
sg202
F2887.8819279999998
sg203
Nsg204
F8681.6314050000001
sg205
F6077.3504069999999
sg206
F2137.8522469999998
sg207
F260.19209310000002
sg208
F6501.2922170000002
sg209
F9530.9405009999991
sg210
F29056.468270000001
sg211
F1578.643939
sg212
Nsg213
F20316.73459
sg214
F3794.4665169999998
sg215
F8627.7874319999992
sg216
F1049.5020480000001
ssI2001
(dp257
g3
F32693.850170000002
sg4
F1219.1717819999999
sg5
F2765.8169210000001
sg6
F1409.0215479999999
sg7
F10212.61875
sg8
F1100.455099
sg9
F34891.676460000002
sg10
F556.4345806
sg11
Nsg12
F4493.7793110000002
sg13
F9731.2055230000005
sg14
F3554.5449090000002
sg15
F31232.226739999998
sg16
F884.67848330000004
sg17
F1083.0864879999999
sg18
F19804.006440000001
sg19
F28928.27
sg20
Nsg21
Nsg22
Nsg23
F20315.296989999999
sg24
F3955.2109380000002
sg25
F5242.5794260000002
sg26
F37315.68578
sg27
F9073.1311719999994
sg28
F3687.477922
sg29
F8025.7132000000001
sg30
F3160.2984569999999
sg31
F8456.3508669999992
sg32
F406.77981920000002
sg33
F4444.3903810000002
sg34
F1843.1230800000001
sg35
F20281.428189999999
sg36
F897.01769549999995
sg37
F5126.2643099999996
sg38
F13234.85628
sg39
Nsg40
F22974.41087
sg41
F6766.5149460000002
sg42
Nsg43
F3256.1102310000001
sg44
F13193.71305
sg45
F67465.778330000001
sg46
Nsg47
F9218.6320660000001
sg48
F1777.7621349999999
sg49
F2715.3400529999999
sg50
F1131.855098
sg51
F1297.638283
sg52
F1057.3421089999999
sg53
F9136.0236380000006
sg54
Nsg55
F9707.8219210000007
sg56
F1002.730381
sg57
F1754.7860579999999
sg58
F2024.268783
sg59
F19331.154879999998
sg60
Nsg61
Nsg62
F28519.622719999999
sg63
F3839.0100590000002
sg64
Nsg65
F4446.9282080000003
sg66
Nsg67
F5477.3473110000004
sg68
F3575.4331189999998
sg69
F1478.739971
sg70
F18480.183229999999
sg71
F44623.550320000002
sg72
F1776.954708
sg73
F2629.6764499999999
sg74
F1330.2490560000001
sg75
Nsg76
F1893.254308
sg77
F7209.655675
sg78
F876.90007060000005
sg79
F2867.9611829999999
sg80
F2523.1558359999999
sg81
F1001.129157
sg82
F5799.0992249999999
sg83
F4077.3022369999999
sg84
F24650.198649999998
sg85
F3982.8084469999999
sg86
F27893.452550000002
sg87
F11853.06148
sg88
Nsg89
F754.41355439999995
sg90
F9287.6744419999995
sg91
Nsg92
F6105.7868170000002
sg93
F825.49995579999995
sg94
F3083.0522839999999
sg95
Nsg96
F7551.5908550000004
sg97
F39583.610079999999
sg98
F7329.2633299999998
sg99
F2471.999957
sg100
F4210.5760710000004
sg101
F7690.9926009999999
sg102
F7652.5425530000002
sg103
F23393.34261
sg104
F48719.153429999998
sg105
F65102.121059999998
sg106
F10026.144689999999
sg107
F31925.733400000001
sg108
F1685.8343769999999
sg109
F545.54355840000005
sg110
F788.5327254
sg111
F1571.8070029999999
sg112
F14213.73177
sg113
F617.66017899999997
sg114
Nsg115
F7901.6772449999999
sg116
Nsg117
F671.84205850000001
sg118
F8025.2292859999998
sg119
F8052.6809000000003
sg120
F61857.366699999999
sg121
F2280.3446130000002
sg122
Nsg123
F34473.063920000001
sg124
F12566.465
sg125
Nsg126
F5574.8608100000001
sg127
F17940.433010000001
sg128
F29871.95938
sg129
F6149.2236599999997
sg130
F5236.7195929999998
sg131
Nsg132
F13829.64177
sg133
Nsg134
F11267.18735
sg135
Nsg136
F30538.75359
sg137
F2241.7281910000002
sg138
F1106.415722
sg139
F5727.3324549999998
sg140
F482.62736710000001
sg141
F2641.5443650000002
sg142
F31761.63679
sg143
F2717.3514
sg144
F1762.282099
sg145
F21431.930420000001
sg146
F3096.7425159999998
sg147
F12782.386490000001
sg148
F2251.8639760000001
sg149
F1126.0425310000001
sg150
F5550.60358
sg151
F7029.5522510000001
sg152
F8727.7867189999997
sg153
F2135.2385559999998
sg154
F4202.3812129999997
sg155
F808.86173359999998
sg156
F12284.24394
sg157
Nsg158
F29434.272560000001
sg159
F11674.118570000001
sg160
F29713.360250000002
sg161
F1679.468507
sg162
F1749.3850010000001
sg163
F686.72200350000003
sg164
F16373.94709
sg165
F25777.131270000002
sg166
F6620.3267239999996
sg167
F496.7442964
sg168
F3948.93577
sg169
F17213.430230000002
sg170
F928.87440549999997
sg171
F28215.942849999999
sg172
Nsg173
F2809.4247529999998
sg174
F1448.517366
sg175
F924.03565809999998
sg176
F36622.609270000001
sg177
F20338.747169999999
sg178
F34081.385690000003
sg179
F24111.749169999999
sg180
F5117.622179
sg181
Nsg182
Nsg183
F7664.1223460000001
sg184
F22621.524700000002
sg185
F2683.297509
sg186
F30629.077389999999
sg187
F1053.5588540000001
sg188
F1555.7013179999999
sg189
F1898.8395459999999
sg190
F617.51548190000005
sg191
F14421.965759999999
sg192
Nsg193
F30704.749179999999
sg194
F6145.9900770000004
sg195
F11958.98287
sg196
F672.27286609999999
sg197
Nsg198
F3006.959574
sg199
F9285.5175120000004
sg200
Nsg201
F2540.7683179999999
sg202
F2906.1779750000001
sg203
Nsg204
F13615.38135
sg205
F6299.5738140000003
sg206
F2169.1138270000001
sg207
F247.91810570000001
sg208
F6857.6420580000004
sg209
F9722.0382690000006
sg210
F29862.694049999998
sg211
F1621.9500829999999
sg212
Nsg213
F21106.653780000001
sg214
F3794.4134239999998
sg215
F8826.0287349999999
sg216
F1056.0904370000001
ssI2002
(dp258
g3
F33349.456969999999
sg4
F1338.6646109999999
sg5
F3169.1481170000002
sg6
F1468.582535
sg7
F10952.014069999999
sg8
F1156.5456670000001
sg9
F34782.181620000003
sg10
F550.65205900000001
sg11
Nsg12
F4567.658727
sg13
F8589.2463540000008
sg14
F3571.2943869999999
sg15
F31636.90897
sg16
F900.13906850000001
sg17
F1104.698071
sg18
F19107.354960000001
sg19
F28944.648870000001
sg20
Nsg21
Nsg22
Nsg23
F21066.612099999998
sg24
F4007.9806100000001
sg25
F5480.2114359999996
sg26
F37316.760999999999
sg27
F9546.0375359999998
sg28
F3807.5269979999998
sg29
F8210.6899990000002
sg30
F3229.6942210000002
sg31
F8320.9810510000007
sg32
F526.34363729999995
sg33
F4638.1571540000004
sg34
F1866.511068
sg35
F20588.207040000001
sg36
F936.78175659999999
sg37
F5253.7564659999998
sg38
F12919.59044
sg39
Nsg40
F23688.011180000001
sg41
F6799.0110729999997
sg42
Nsg43
F3383.5906909999999
sg44
F13797.88191
sg45
F66872.712599999999
sg46
Nsg47
F8505.4090730000007
sg48
F1817.841602
sg49
F2980.8406629999999
sg50
F1131.8529109999999
sg51
F1270.9876300000001
sg52
F1143.7930369999999
sg53
F9565.5876590000007
sg54
F568.55194610000001
sg55
F8688.5002089999998
sg56
F1028.8993869999999
sg57
F1716.008793
sg58
F1913.516719
sg59
F20598.073270000001
sg60
Nsg61
Nsg62
F28576.120910000001
sg63
F3943.760937
sg64
Nsg65
F4572.4169590000001
sg66
Nsg67
F5676.3610129999997
sg68
F3330.1471329999999
sg69
F1465.4691849999999
sg70
F18146.092499999999
sg71
F45050.223449999998
sg72
F1722.190838
sg73
F2283.6858029999999
sg74
F1346.7021830000001
sg75
Nsg76
F1924.9497919999999
sg77
F7366.5661749999999
sg78
F847.35070870000004
sg79
F3108.0518000000002
sg80
F2860.2917980000002
sg81
F984.27758459999995
sg82
F6041.6390240000001
sg83
F4332.1564040000003
sg84
F25964.580020000001
sg85
F4107.5454739999996
sg86
F28336.289519999998
sg87
F11477.27154
sg88
Nsg89
F737.84142029999998
sg90
F9403.1164609999996
sg91
Nsg92
F6443.088487
sg93
F833.84643830000005
sg94
F3085.961718
sg95
Nsg96
F8055.2304590000003
sg97
F39934.957990000003
sg98
F7819.2354649999997
sg99
F2734.7483400000001
sg100
F4231.3595519999999
sg101
F7863.8985899999998
sg102
F7934.535175
sg103
F23586.886139999999
sg104
F49533.449350000003
sg105
F67945.324659999998
sg106
F10329.28809
sg107
F32307.132669999999
sg108
F1784.3666000000001
sg109
F577.91978070000005
sg110
F830.46163730000001
sg111
F1557.175146
sg112
F14896.575790000001
sg113
F614.55223149999995
sg114
Nsg115
F8002.5973919999997
sg116
Nsg117
F686.42069549999997
sg118
F8053.1039719999999
sg119
F8123.5241919999999
sg120
F63725.403890000001
sg121
F2360.268826
sg122
Nsg123
F35887.811229999999
sg124
F12020.69405
sg125
Nsg126
F5760.971219
sg127
F18382.84273
sg128
F30661.561129999998
sg129
F6344.1198080000004
sg130
F5339.3950359999999
sg131
Nsg132
F13792.17402
sg133
Nsg134
F11382.13069
sg135
Nsg136
F30815.598999999998
sg137
F2336.8897929999998
sg138
F1085.9055370000001
sg139
F5840.0450920000003
sg140
F587.63058320000005
sg141
F2804.938459
sg142
F31807.813460000001
sg143
F2758.2288819999999
sg144
F1904.1451420000001
sg145
F21438.667229999999
sg146
F3161.8703740000001
sg147
F13405.94526
sg148
F2335.10007
sg149
F1026.0798219999999
sg150
F5778.4752369999997
sg151
F7067.8831680000003
sg152
F8895.2150459999993
sg153
F2152.5862550000002
sg154
F3777.6302949999999
sg155
F846.4161699
sg156
F13142.7196
sg157
Nsg158
F30067.238669999999
sg159
F11621.007149999999
sg160
F30126.66792
sg161
F1725.4014569999999
sg162
F1758.4140870000001
sg163
F741.27647969999998
sg164
F16507.26021
sg165
F26095.405739999998
sg166
F6677.779896
sg167
F506.63954719999998
sg168
F4067.533872
sg169
F16564.778320000001
sg170
F786.69780530000003
sg171
F28253.967400000001
sg172
Nsg173
F2969.1653980000001
sg174
F1491.4855689999999
sg175
F904.06945599999995
sg176
F37814.221039999997
sg177
F20755.278780000001
sg178
F33890.382980000002
sg179
F25720.62788
sg180
F5289.8512989999999
sg181
Nsg182
Nsg183
F8129.8754250000002
sg184
F22042.872810000001
sg185
F2767.8927640000002
sg186
F30399.083920000001
sg187
F1063.5292629999999
sg188
F1524.5891750000001
sg189
F1848.4731670000001
sg190
F611.89165300000002
sg191
F15522.46429
sg192
Nsg193
F30656.279910000001
sg194
F6748.0187059999998
sg195
F12137.23122
sg196
F664.33565420000002
sg197
Nsg198
F3105.6876010000001
sg199
F9955.8006939999996
sg200
Nsg201
F2558.1344260000001
sg202
F2954.6533009999998
sg203
Nsg204
F15759.725420000001
sg205
F6335.7571820000003
sg206
F2155.7024470000001
sg207
F249.17728579999999
sg208
F7143.6013240000002
sg209
F10459.288570000001
sg210
F30543.724689999999
sg211
F1523.208828
sg212
Nsg213
F21757.858530000001
sg214
F3717.0641070000001
sg215
F8969.0890839999993
sg216
F1070.983156
ssI2003
(dp259
g3
F33639.97767
sg4
F1389.562412
sg5
F3672.8919080000001
sg6
F1533.8703619999999
sg7
F12126.19313
sg8
F1237.677966
sg9
F34456.792000000001
sg10
F525.48306330000003
sg11
Nsg12
F4663.8670819999998
sg13
F9263.6796890000005
sg14
F3597.7019409999998
sg15
F30793.709350000001
sg16
F944.94923029999995
sg17
F1134.145262
sg18
F19768.303059999998
sg19
F29369.486150000001
sg20
Nsg21
Nsg22
Nsg23
F21670.803520000001
sg24
F4008.1206609999999
sg25
F5689.123106
sg26
F42607.292959999999
sg27
F10292.10332
sg28
F3869.8243109999999
sg29
F8299.8980709999996
sg30
F3181.7679790000002
sg31
F8964.7237050000003
sg32
F348.72338739999998
sg33
F5303.92058
sg34
F1922.0477289999999
sg35
F20357.429209999998
sg36
F975.39864490000002
sg37
F5522.9707630000003
sg38
F12968.53493
sg39
Nsg40
F24234.26442
sg41
F7118.8612149999999
sg42
Nsg43
F3531.8588840000002
sg44
F14455.253779999999
sg45
F69628.711880000003
sg46
Nsg47
F8586.8451449999993
sg48
F1931.7465580000001
sg49
F3289.675898
sg50
F1170.1491510000001
sg51
F1274.302379
sg52
F1250.3322459999999
sg53
F9933.6576850000001
sg54
F631.78271240000004
sg55
F7872.9552659999999
sg56
F1065.1420889999999
sg57
F1767.0688170000001
sg58
F1981.772741
sg59
F21070.529589999998
sg60
Nsg61
Nsg62
F28629.699240000002
sg63
F3847.8375860000001
sg64
Nsg65
F4683.3505379999997
sg66
Nsg67
F5831.2926589999997
sg68
F3361.0281329999998
sg69
F1577.1200879999999
sg70
F17263.437170000001
sg71
F45227.210509999997
sg72
F1668.708877
sg73
F2340.4735529999998
sg74
F1354.8952750000001
sg75
Nsg76
F1957.7669080000001
sg77
F7563.894472
sg78
F868.80543720000003
sg79
F3397.6284369999998
sg80
F3262.4462560000002
sg81
F939.58775249999997
sg82
F5936.1332899999998
sg83
F4777.9926020000003
sg84
F27614.940729999998
sg85
F4188.5426420000003
sg86
F28837.690849999999
sg87
F12719.41511
sg88
Nsg89
F671.10332159999996
sg90
F9646.4212950000001
sg91
Nsg92
F6932.5330670000003
sg93
F868.52626620000001
sg94
F3122.7833730000002
sg95
Nsg96
F8547.4872950000008
sg97
F40603.853459999998
sg98
F8248.9580920000008
sg99
F2728.21281
sg100
F4285.6427700000004
sg101
F7993.4289390000004
sg102
F8162.9860829999998
sg103
F23630.108850000001
sg104
F49921.665220000003
sg105
F67161.077420000001
sg106
F10689.61861
sg107
F32428.53081
sg108
F1893.2307049999999
sg109
F596.54500210000003
sg110
F856.10051339999995
sg111
F1649.2665529999999
sg112
F15514.53226
sg113
F625.11505009999996
sg114
Nsg115
F7990.1034710000004
sg116
Nsg117
F712.10690220000004
sg118
F8240.2579019999994
sg119
F8483.3191669999997
sg120
F63930.239090000003
sg121
F2431.645951
sg122
Nsg123
F36776.579510000003
sg124
F11789.135490000001
sg125
Nsg126
F5848.5155690000001
sg127
F19070.483919999999
sg128
F31276.545699999999
sg129
F6681.6424589999997
sg130
F5443.7580159999998
sg131
Nsg132
F13856.942650000001
sg133
Nsg134
F11697.670249999999
sg135
Nsg136
F30934.381160000001
sg137
F2397.2772749999999
sg138
F1073.011301
sg139
F6186.1427359999998
sg140
F611.72825939999996
sg141
F3135.3323740000001
sg142
F31843.167109999999
sg143
F2836.7939029999998
sg144
F2035.5437710000001
sg145
F21095.478029999998
sg146
F3323.292856
sg147
F14125.987649999999
sg148
F2472.1984240000002
sg149
F1000.026689
sg150
F6122.1718049999999
sg151
F7247.0097400000004
sg152
F9623.5890189999991
sg153
F2165.6452049999998
sg154
F2161.9749780000002
sg155
F936.79214400000001
sg156
F14216.531779999999
sg157
Nsg158
F30655.241239999999
sg159
F11634.284739999999
sg160
F31093.599190000001
sg161
F1777.061236
sg162
F1781.265406
sg163
F743.77360490000001
sg164
F17087.726180000001
sg165
F26459.349040000001
sg166
F6830.7406140000003
sg167
F487.07074710000001
sg168
F4103.1678099999999
sg169
F16861.268029999999
sg170
F837.85535249999998
sg171
F28021.540929999999
sg172
Nsg173
F3128.8454750000001
sg174
F1561.969386
sg175
F918.8527014
sg176
F40134.384380000003
sg177
F20646.447960000001
sg178
F33844.062010000001
sg179
F28327.948120000001
sg180
F5530.594666
sg181
Nsg182
Nsg183
F8599.6829679999992
sg184
F21975.820400000001
sg185
F2863.4342879999999
sg186
F30924.230380000001
sg187
F1092.754426
sg188
F1582.758517
sg189
F1841.912605
sg190
F628.97016350000001
sg191
F17701.853950000001
sg192
Nsg193
F30524.278829999999
sg194
F7350.8140110000004
sg195
F12615.108700000001
sg196
F619.93606739999996
sg197
Nsg198
F3246.9294570000002
sg199
F10733.172140000001
sg200
Nsg201
F2522.4588399999998
sg202
F3027.3975449999998
sg203
Nsg204
F17407.38982
sg205
F6643.041655
sg206
F2181.392828
sg207
F255.77805979999999
sg208
F7353.7199250000003
sg209
F10981.849899999999
sg210
F31492.634290000002
sg211
F1579.880549
sg212
Nsg213
F22975.791720000001
sg214
F3784.268806
sg215
F9102.0078780000003
sg216
F1068.4830039999999
ssI2004
(dp260
g3
F34343.671860000002
sg4
F1458.8893049999999
sg5
F4259.8496409999998
sg6
F1606.912235
sg7
F13088.092329999999
sg8
F1348.086047
sg9
F35087.447030000003
sg10
F582.46403520000001
sg11
Nsg12
F4793.1535629999998
sg13
F10010.708490000001
sg14
F3678.1665800000001
sg15
F30617.669409999999
sg16
F960.48470510000004
sg17
F1168.7924840000001
sg18
F20021.167519999999
sg19
F30052.70233
sg20
Nsg21
Nsg22
Nsg23
F22610.220300000001
sg24
F4032.4066210000001
sg25
F6038.3289789999999
sg26
F45608.664479999999
sg27
F11088.16108
sg28
F4100.9780890000002
sg29
F8669.0628419999994
sg30
F3216.1058859999998
sg31
F9277.0716150000007
sg32
F324.98658899999998
sg33
F5761.2468689999996
sg34
F2027.6585889999999
sg35
F20674.592850000001
sg36
F1024.0880199999999
sg37
F5814.8358280000002
sg38
F12882.15213
sg39
Nsg40
F24773.995849999999
sg41
F7184.0837929999998
sg42
Nsg43
F3689.6150379999999
sg44
F15178.38465
sg45
F70928.145900000003
sg46
Nsg47
F9021.4808489999996
sg48
F2051.6314940000002
sg49
F3593.6251590000002
sg50
F1185.9873789999999
sg51
F1304.7312850000001
sg52
F1371.097624
sg53
F10718.874949999999
sg54
F672.0791954
sg55
F9151.1852859999999
sg56
F1114.6333669999999
sg57
F1816.609508
sg58
F2021.6347619999999
sg59
F21961.184570000001
sg60
Nsg61
Nsg62
F29143.053250000001
sg63
F3995.7526899999998
sg64
Nsg65
F5168.0246450000004
sg66
Nsg67
F6048.315079
sg68
F3416.247672
sg69
F1701.6803809999999
sg70
F16832.337589999999
sg71
F46741.645559999997
sg72
F1672.1708679999999
sg73
F2401.5163889999999
sg74
F1352.8999699999999
sg75
Nsg76
F1985.0708259999999
sg77
F7904.1123909999997
sg78
F867.41555449999998
sg79
F3718.6369850000001
sg80
F3601.5322019999999
sg81
F935.73832200000004
sg82
F5925.3720489999996
sg83
F5396.9173190000001
sg84
F28093.65495
sg85
F4205.2853889999997
sg86
F29940.150730000001
sg87
F13016.59103
sg88
Nsg89
F667.14605470000004
sg90
F10113.222009999999
sg91
Nsg92
F7765.2179459999998
sg93
F860.25800709999999
sg94
F3004.8705880000002
sg95
Nsg96
F9174.0110210000003
sg97
F41629.711219999997
sg98
F8965.4248339999995
sg99
F2931.1286810000001
sg100
F4378.5509469999997
sg101
F8259.2986849999998
sg102
F8682.7828539999991
sg103
F24061.813160000002
sg104
F49162.469980000002
sg105
F74163.568920000005
sg106
F11178.213250000001
sg107
F33062.531589999999
sg108
F2016.4166949999999
sg109
F626.87796560000004
sg110
F885.14003249999996
sg111
F1743.9266459999999
sg112
F16294.836509999999
sg113
F604.36391570000001
sg114
Nsg115
F8343.6095929999992
sg116
Nsg117
F716.8445001
sg118
F8703.0414820000005
sg119
F8687.7006689999998
sg120
F65800.175929999998
sg121
F2499.0359360000002
sg122
Nsg123
F37738.055919999999
sg124
F12301.231540000001
sg125
Nsg126
F6258.1591660000004
sg127
F19957.998169999999
sg128
F32200.84116
sg129
F6924.3792439999997
sg130
F5525.855912
sg131
Nsg132
F14351.763150000001
sg133
Nsg134
F12271.76298
sg135
Nsg136
F31807.186979999999
sg137
F2375.6922049999998
sg138
F1019.830339
sg139
F6268.1522450000002
sg140
F628.19420490000005
sg141
F3327.126143
sg142
F32490.367129999999
sg143
F2967.5553150000001
sg144
F2191.799395
sg145
F21300.42179
sg146
F3444.205672
sg147
F14712.48381
sg148
F2703.0274209999998
sg149
F1002.361489
sg150
F6442.5536350000002
sg151
F7562.8820489999998
sg152
F8977.9341160000004
sg153
F2183.4970330000001
sg154
F3088.0290920000002
sg155
F1209.4316060000001
sg156
F15166.073259999999
sg157
Nsg158
F31828.022540000002
sg159
F11959.30385
sg160
F33464.159780000002
sg161
F1891.9399619999999
sg162
F1816.576485
sg163
F785.35433460000002
sg164
F18041.922149999999
sg165
F26881.96717
sg166
F7083.9965849999999
sg167
F496.05118590000001
sg168
F4311.3361530000002
sg169
F17446.610830000001
sg170
F855.71399659999997
sg171
F28226.874660000001
sg172
Nsg173
F3283.6085210000001
sg174
F1553.6999390000001
sg175
F941.2017462
sg176
F43264.6342
sg177
F20405.04264
sg178
F34480.968099999998
sg179
F35127.939870000002
sg180
F5933.4679599999999
sg181
Nsg182
Nsg183
F8927.8087269999996
sg184
F22636.70982
sg185
F2970.4358579999998
sg186
F33055.9041
sg187
F1125.4008180000001
sg188
F1631.2635580000001
sg189
F1845.877706
sg190
F646.12166960000002
sg191
F19033.889139999999
sg192
Nsg193
F30885.410599999999
sg194
F8000.7009019999996
sg195
F13297.13925
sg196
F603.79211350000003
sg197
Nsg198
F3377.5720649999998
sg199
F11727.734130000001
sg200
Nsg201
F2595.6744680000002
sg202
F3152.264287
sg203
Nsg204
F23297.196039999999
sg205
F6973.2776119999999
sg206
F2268.2195649999999
sg207
F264.65690059999997
sg208
F8056.3918199999998
sg209
F11499.366190000001
sg210
F32260.000779999998
sg211
F1641.844149
sg212
Nsg213
F23896.508880000001
sg214
F3865.113456
sg215
F9629.5029809999996
sg216
F1037.6396400000001
ssI2005
(dp261
g3
F35033.422930000001
sg4
F1416.489881
sg5
F4761.8544410000004
sg6
F1695.311974
sg7
F14197.22208
sg8
F1508.0083970000001
sg9
F35784.013189999998
sg10
F636.06870430000004
sg11
Nsg12
F4904.7998319999997
sg13
F10833.40561
sg14
F3772.0386309999999
sg15
F31199.357970000001
sg16
F1013.54087
sg17
F1208.0143880000001
sg18
F20405.80675
sg19
F30441.348129999998
sg20
Nsg21
Nsg22
Nsg23
F23475.572680000001
sg24
F4061.5864350000002
sg25
F6340.8440700000001
sg26
F48782.645490000003
sg27
F11852.80594
sg28
F4334.4774450000004
sg29
F8940.7799410000007
sg30
F3381.1883229999999
sg31
F9259.0859970000001
sg32
F345.75830539999998
sg33
F5290.116145
sg34
F2144.795404
sg35
F21047.463619999999
sg36
F1070.132597
sg37
F6101.5768529999996
sg38
F13014.264139999999
sg39
Nsg40
F25304.940620000001
sg41
F7224.3702549999998
sg42
Nsg43
F3831.1065279999998
sg44
F16174.826800000001
sg45
F66854.721860000005
sg46
Nsg47
F9682.7910690000008
sg48
F2208.5873499999998
sg49
F4496.1439360000004
sg50
F1207.0088989999999
sg51
F1346.3975190000001
sg52
F1500.2815330000001
sg53
F11464.73258
sg54
F748.11281329999997
sg55
F9924.4621090000001
sg56
F1164.5960769999999
sg57
F1925.8101280000001
sg58
F2072.7752169999999
sg59
F22783.270049999999
sg60
Nsg61
Nsg62
F29452.66778
sg63
F4133.4483959999998
sg64
Nsg65
F5205.4121960000002
sg66
Nsg67
F6386.9552590000003
sg68
F3500.014905
sg69
F1749.6513319999999
sg70
F18002.515019999999
sg71
F47626.279820000003
sg72
F1666.0096060000001
sg73
F2465.0974070000002
sg74
F1349.137385
sg75
Nsg76
F1985.7385859999999
sg77
F8238.3585340000009
sg78
F858.21732610000004
sg79
F4114.5728339999996
sg80
F4096.4401189999999
sg81
F984.76350590000004
sg82
F6380.3690740000002
sg83
F5583.3991749999996
sg84
F28068.471679999999
sg85
F4138.9266559999996
sg86
F30707.945879999999
sg87
F14015.36563
sg88
Nsg89
F672.00380410000002
sg90
F10157.506960000001
sg91
Nsg92
F8540.8163519999998
sg93
F884.55437089999998
sg94
F3053.9995560000002
sg95
Nsg96
F9809.338565
sg97
F42516.393470000003
sg98
F9361.2979059999998
sg99
F3354.6509580000002
sg100
F4490.6195969999999
sg101
F8596.8308710000001
sg102
F8852.1032680000008
sg103
F24407.93895
sg104
F48377.125740000003
sg105
F69512.331409999999
sg106
F11544.277319999999
sg107
F33626.386830000003
sg108
F2161.2724039999998
sg109
F669.52338239999995
sg110
F911.08145330000002
sg111
F1721.340925
sg112
F16974.559809999999
sg113
F609.83707770000001
sg114
Nsg115
F8509.4263030000002
sg116
Nsg117
F970.88302739999995
sg118
F9166.5635569999995
sg119
F9041.5372490000009
sg120
F68319.637210000001
sg121
F2627.6623399999999
sg122
Nsg123
F38896.386610000001
sg124
F12910.647989999999
sg125
Nsg126
F6510.3944460000002
sg127
F21264.413929999999
sg128
F32719.025010000001
sg129
F7168.5645439999998
sg130
F5702.1876240000001
sg131
Nsg132
F14962.967989999999
sg133
Nsg134
F12662.91836
sg135
Nsg136
F32189.351330000001
sg137
F2341.6334149999998
sg138
F1023.232261
sg139
F6254.3420729999998
sg140
F646.98812369999996
sg141
F3610.6484329999998
sg142
F33193.237289999997
sg143
F3050.8266939999999
sg144
F2361.950703
sg145
F21368.958790000001
sg146
F3508.299806
sg147
F15331.78789
sg148
F2861.6790679999999
sg149
F1016.6937809999999
sg150
F6674.7402190000003
sg151
F7872.3990540000004
sg152
F10031.494189999999
sg153
F2236.0824819999998
sg154
F2989.6733509999999
sg155
F1373.9425879999999
sg156
F16547.960640000001
sg157
Nsg158
F32702.982779999998
sg159
F12191.063819999999
sg160
F35677.918510000003
sg161
F2000.9655049999999
sg162
F1840.238177
sg163
F840.47465950000003
sg164
F18556.034670000001
sg165
F27392.043389999999
sg166
F7304.5557440000002
sg167
F485.8903454
sg168
F4323.3007889999999
sg169
F17964.836800000001
sg170
F868.67507430000001
sg171
F28279.87053
sg172
Nsg173
F3480.1769829999998
sg174
F1612.9883110000001
sg175
F953.81092339999998
sg176
F45374.237549999998
sg177
F21018.446049999999
sg178
F35104.487529999999
sg179
F37236.348189999997
sg180
F6128.5166049999998
sg181
Nsg182
Nsg183
F9228.2360950000002
sg184
F23339.95407
sg185
F3102.28377
sg186
F34889.187539999999
sg187
F1157.593472
sg188
F1677.0011489999999
sg189
F1866.0458839999999
sg190
F644.83672360000003
sg191
F20058.23691
sg192
Nsg193
F31114.530589999998
sg194
F8699.0980810000001
sg195
F13784.16006
sg196
F596.11890840000001
sg197
Nsg198
F3550.213338
sg199
F13040.371499999999
sg200
Nsg201
F2536.3809780000001
sg202
F3276.8582120000001
sg203
Nsg204
F24813.40655
sg205
F7182.3656250000004
sg206
F2335.5636549999999
sg207
F276.99350800000002
sg208
F8516.9862580000008
sg209
F11542.215969999999
sg210
F32737.953799999999
sg211
F1598.913391
sg212
Nsg213
F24348.402239999999
sg214
F3900.7873610000001
sg215
F9595.2909450000006
sg216
F1052.770489
ssI2006
(dp262
g3
F35730.416469999996
sg4
F1488.146587
sg5
F5245.0420240000003
sg6
F1813.6224179999999
sg7
F15402.192789999999
sg8
F1650.8716549999999
sg9
F36851.122069999998
sg10
F688.93957590000002
sg11
Nsg12
F5060.1542069999996
sg13
F11647.3845
sg14
F3885.0218770000001
sg15
F31519.93406
sg16
F1050.77602
sg17
F1254.557333
sg18
F20406.501700000001
sg19
F30960.810290000001
sg20
Nsg21
Nsg22
Nsg23
F24769.630649999999
sg24
F4175.7562349999998
sg25
F6732.9311159999997
sg26
F49411.280639999997
sg27
F12877.69003
sg28
F4579.7034960000001
sg29
F9349.7934239999995
sg30
F3494.3707330000002
sg31
F9720.9751219999998
sg32
F364.54489380000001
sg33
F6237.9119369999999
sg34
F2236.8550329999998
sg35
F21660.249100000001
sg36
F1111.1133870000001
sg37
F6376.6033790000001
sg38
F12918.583619999999
sg39
Nsg40
F25190.915379999999
sg41
F7419.995492
sg42
Nsg43
F3895.8174819999999
sg44
F17510.353899999998
sg45
F64126.731330000002
sg46
Nsg47
F10053.05935
sg48
F2377.7429619999998
sg49
F5981.242209
sg50
F1247.0419649999999
sg51
F1395.3387949999999
sg52
F1251.4510580000001
sg53
F12091.739820000001
sg54
F808.9020726
sg55
F10721.07764
sg56
F1226.3992929999999
sg57
F2228.7008390000001
sg58
F2156.204244
sg59
F23847.221890000001
sg60
Nsg61
Nsg62
F29969.73314
sg63
F4253.4108539999997
sg64
Nsg65
F5471.7763359999999
sg66
Nsg67
F6805.3739759999999
sg68
F3660.720687
sg69
F1812.556341
sg70
F19282.53313
sg71
F48402.636789999997
sg72
F1649.4844909999999
sg73
Nsg74
F1361.9974870000001
sg75
Nsg76
F2004.6348129999999
sg77
F8942.0777130000006
sg78
F873.31665469999996
sg79
F4611.3032279999998
sg80
F4631.2124720000002
sg81
F924.33305580000001
sg82
F6960.5361839999996
sg83
F6031.6291359999996
sg84
F26752.551500000001
sg85
F4116.9305789999999
sg86
F31939.536039999999
sg87
F14529.928459999999
sg88
Nsg89
F685.65345490000004
sg90
F10478.88197
sg91
Nsg92
F9436.3215280000004
sg93
F902.91912409999998
sg94
F3048.380768
sg95
Nsg96
F10508.5605
sg97
F43228.111149999997
sg98
F10122.693649999999
sg99
F3926.1040969999999
sg100
F4711.2694019999999
sg101
F8977.2942380000004
sg102
F9681.1699279999993
sg103
F24929.474750000001
sg104
F49523.483529999998
sg105
F69182.182790000006
sg106
F11996.091270000001
sg107
F34688.342239999998
sg108
F2313.3044890000001
sg109
F694.42825719999996
sg110
F977.06793110000001
sg111
F1755.775083
sg112
F17663.569469999999
sg113
F622.85788430000002
sg114
Nsg115
F8753.2306439999993
sg116
Nsg117
F977.76637740000001
sg118
F9778.3784350000005
sg119
F9672.827953
sg120
F70581.769159999996
sg121
F2861.573261
sg122
Nsg123
F39996.863590000001
sg124
F13228.19148
sg125
Nsg126
F6713.0848830000004
sg127
F22683.447909999999
sg128
F33233.325680000002
sg129
F7201.681842
sg130
F5901.869248
sg131
Nsg132
F15584.62494
sg133
Nsg134
F13248.30745
sg135
Nsg136
F32846.936690000002
sg137
F2346.6663090000002
sg138
F1031.72965
sg139
F6337.1753529999996
sg140
F671.43375479999997
sg141
F3916.3988159999999
sg142
F34207.445520000001
sg143
F3152.921378
sg144
F2481.6312339999999
sg145
F21606.922279999999
sg146
F3740.4144059999999
sg147
F16095.69542
sg148
F3062.287069
sg149
F1017.729811
sg150
F6954.4223249999995
sg151
F8248.2687490000008
sg152
F9809.0433099999991
sg153
F2237.6811280000002
sg154
F3081.8502020000001
sg155
F1335.9819339999999
sg156
F18253.443729999999
sg157
Nsg158
F33916.973409999999
sg159
F12658.262269999999
sg160
F37937.979650000001
sg161
F2121.0006979999998
sg162
F1892.7086139999999
sg163
F894.4991516
sg164
F20763.381130000002
sg165
F28044.43046
sg166
F7676.7775600000004
sg167
F496.78076440000001
sg168
F4373.8114059999998
sg169
F18540.779490000001
sg170
F885.52525249999997
sg171
F28737.724200000001
sg172
Nsg173
F3633.734825
sg174
F1751.4626149999999
sg175
F966.36037910000005
sg176
F47830.25834
sg177
F21349.95363
sg178
F36237.750370000002
sg179
F41584.190880000002
sg180
F6293.2879670000002
sg181
Nsg182
Nsg183
F9654.4483619999992
sg184
F24213.785540000001
sg185
F3235.7085339999999
sg186
F35684.533280000003
sg187
F1199.5436810000001
sg188
F1673.5779339999999
sg189
F1868.453579
sg190
F674.87120349999998
sg191
F22619.39385
sg192
Nsg193
F32302.183730000001
sg194
F9528.5856089999997
sg195
F14651.8488
sg196
F570.10844340000006
sg197
Nsg198
F3781.2323940000001
sg199
F14716.00021
sg200
Nsg201
F2659.0543830000001
sg202
F3423.1158310000001
sg203
Nsg204
F24401.73689
sg205
F7514.3738139999996
sg206
F2401.9045019999999
sg207
F284.19812919999998
sg208
F8858.3608550000008
sg209
F11973.914129999999
sg210
F33385.624669999997
sg211
F1605.860625
sg212
Nsg213
F25595.459750000002
sg214
F3995.0619689999999
sg215
F9546.8195379999997
sg216
F1037.4731380000001
ssI2007
(dp263
g3
F36124.313150000002
sg4
F1553.4672579999999
sg5
F5795.1706290000002
sg6
F1921.8521169999999
sg7
F17010.27493
sg8
F1798.9741879999999
sg9
F37854.35512
sg10
F750.82113019999997
sg11
Nsg12
F5230.5439900000001
sg13
F12544.62012
sg14
F3995.024559
sg15
F31509.648529999999
sg16
F1056.9421910000001
sg17
F1303.7352129999999
sg18
F20242.882389999999
sg19
F31635.876410000001
sg20
Nsg21
Nsg22
Nsg23
F26323.734390000001
sg24
F4331.3553570000004
sg25
F7198.1904420000001
sg26
F49541.509940000004
sg27
F14016.154790000001
sg28
F4844.7548660000002
sg29
F9349.5166140000001
sg30
F3344.7414840000001
sg31
F10136.957189999999
sg32
F401.90723209999999
sg33
F6802.8245450000004
sg34
F2321.8254000000002
sg35
F22495.770980000001
sg36
F1157.504066
sg37
F6725.0035209999996
sg38
F13382.70059
sg39
Nsg40
F25673.397250000002
sg41
F7429.0870519999999
sg42
Nsg43
F4136.7920620000004
sg44
F19326.697039999999
sg45
F57092.027240000003
sg46
Nsg47
F10680.262640000001
sg48
F2573.1362840000002
sg49
F7395.1560170000002
sg50
F1293.316073
sg51
F1455.310412
sg52
F1504.7811589999999
sg53
F12488.22926
sg54
F874.19799290000003
sg55
F11467.79639
sg56
F1290.6934409999999
sg57
F2206.3744369999999
sg58
F2322.0637700000002
sg59
F24948.257699999998
sg60
Nsg61
Nsg62
F30465.751749999999
sg63
F4406.0338899999997
sg64
Nsg65
F5658.1344779999999
sg66
Nsg67
F7332.5757809999996
sg68
F3800.4305519999998
sg69
F1882.030726
sg70
F21026.04075
sg71
F49175.281920000001
sg72
F1648.905557
sg73
Nsg74
F1382.35088
sg75
Nsg76
F2029.385941
sg77
F9884.8820390000001
sg78
F873.89708180000002
sg79
F5238.6765809999997
sg80
F5260.5352730000004
sg81
F1000.621886
sg82
F7444.5341230000004
sg83
F6547.0848420000002
sg84
F25404.38292
sg85
F4050.8971139999999
sg86
F33500.756410000002
sg87
F15071.04902
sg88
Nsg89
F698.47899410000002
sg90
F11026.71818
sg91
Nsg92
F10284.54004
sg93
F912.99752120000005
sg94
F2975.0555770000001
sg95
Nsg96
F11238.41113
sg97
F43635.585209999997
sg98
F10750.369640000001
sg99
F4671.6940809999996
sg100
F4955.1581859999997
sg101
F9371.9864579999994
sg102
F9970.3239040000008
sg103
F25826.45205
sg104
F48654.581819999999
sg105
F67787.283890000006
sg106
F12553.958060000001
sg107
F35834.556069999999
sg108
F2481.8733809999999
sg109
F727.22242019999999
sg110
F1025.4096649999999
sg111
F1887.6819599999999
sg112
F17711.245599999998
sg113
F621.61270520000005
sg114
Nsg115
F9196.4169380000003
sg116
Nsg117
F976.72999949999996
sg118
F10779.283890000001
sg119
F10274.41747
sg120
F74113.939310000002
sg121
F3078.462387
sg122
Nsg123
F41136.9735
sg124
F13434.150310000001
sg125
Nsg126
F6746.0078309999999
sg127
F23833.455580000002
sg128
F33805.984479999999
sg129
F7305.1423359999999
sg130
F6101.9867389999999
sg131
Nsg132
F14634.38566
sg133
Nsg134
F13794.179630000001
sg135
Nsg136
F33558.651960000003
sg137
F2318.8138669999998
sg138
F1051.873304
sg139
F6213.5986830000002
sg140
F694.99824409999997
sg141
F4409.4641089999996
sg142
F34595.280030000002
sg143
F3303.2840259999998
sg144
F2563.9273939999998
sg145
F22067.96874
sg146
F3801.6522380000001
sg147
F16925.374329999999
sg148
F3324.1848129999998
sg149
F1029.1540170000001
sg150
F7249.1868359999999
sg151
F8734.7898800000003
sg152
F10392.07712
sg153
F2242.959198
sg154
F3036.273228
sg155
F1301.5148389999999
sg156
F19648.449540000001
sg157
Nsg158
F34782.1783
sg159
F12905.14438
sg160
F39961.019240000001
sg161
F2289.6654870000002
sg162
F1951.8656370000001
sg163
F917.54228350000005
sg164
F18560.94944
sg165
F28527.088729999999
sg166
F8085.1829440000001
sg167
F504.79164320000001
sg168
F4299.10754
sg169
F18591.211350000001
sg170
F913.35224549999998
sg171
F29007.909479999998
sg172
Nsg173
F4198.6055919999999
sg174
F1881.4298470000001
sg175
F980.30341910000004
sg176
F49942.413159999996
sg177
F22119.769189999999
sg178
F37576.672290000002
sg179
F46394.132400000002
sg180
F6547.2416139999996
sg181
Nsg182
Nsg183
F10285.52564
sg184
F25095.07358
sg185
F3403.3692569999998
sg186
F36875.371500000001
sg187
F1241.5799959999999
sg188
F1708.1917100000001
sg189
F1955.5746489999999
sg190
F693.30826590000004
sg191
F23611.174879999999
sg192
Nsg193
F33402.792650000003
sg194
F10258.612779999999
sg195
F15654.515659999999
sg196
F559.83742080000002
sg197
Nsg198
F4001.7919010000001
sg199
F16268.551219999999
sg200
Nsg201
F2839.1002859999999
sg202
F3563.331224
sg203
Nsg204
F28798.392619999999
sg205
F7908.8324849999999
sg206
F2458.0285669999998
sg207
F293.61579169999999
sg208
F9374.6456890000009
sg209
F12376.27915
sg210
F34321.353009999999
sg211
F1655.0770359999999
sg212
Nsg213
F26258.00216
sg214
F4188.0231919999997
sg215
F10170.046899999999
sg216
F1014.846758
ssI2008
(dp264
g3
F35948.056989999997
sg4
F1668.032974
sg5
F6566.5766659999999
sg6
F2041.053238
sg7
F17599.497490000002
sg8
F1898.138582
sg9
F38159.626329999999
sg10
F813.73145999999997
sg11
Nsg12
F5293.431415
sg13
F13275.684450000001
sg14
F4172.3347080000003
sg15
F30334.624980000001
sg16
F1085.513907
sg17
F1380.1181999999999
sg18
F20564.729370000001
sg19
F31322.699519999998
sg20
Nsg21
Nsg22
Nsg23
F27225.48029
sg24
F4364.9892550000004
sg25
F7598.1239839999998
sg26
F49952.164819999998
sg27
F14767.30437
sg28
F5082.9314370000002
sg29
F9739.1005540000006
sg30
F3433.7303280000001
sg31
F10968.80984
sg32
F422.2262647
sg33
F7531.0989950000003
sg34
F2316.6651230000002
sg35
F24646.044839999999
sg36
F1208.4496280000001
sg37
F7216.119498
sg38
F13441.797989999999
sg39
Nsg40
F25037.38953
sg41
F7271.8116870000003
sg42
Nsg43
F3972.230071
sg44
F20402.88841
sg45
F51361.421589999998
sg46
Nsg47
F11411.8598
sg48
F2635.3368500000001
sg49
F8023.5682470000002
sg50
F1349.4547560000001
sg51
F1440.271211
sg52
F1800.7628950000001
sg53
F12405.500609999999
sg54
F879.03267559999995
sg55
F11877.702950000001
sg56
F1356.258493
sg57
F2226.73432
sg58
F2424.5215039999998
sg59
F25338.653559999999
sg60
Nsg61
Nsg62
F30271.656129999999
sg63
F4512.3171990000001
sg64
Nsg65
F5738.9167530000004
sg66
Nsg67
F7967.3295740000003
sg68
F3934.8169549999998
sg69
F1945.7724499999999
sg70
F20356.773580000001
sg71
F48583.241450000001
sg72
F1657.087673
sg73
Nsg74
F1410.5297009999999
sg75
Nsg76
F2042.7351759999999
sg77
F10546.39905
sg78
F875.48087310000005
sg79
F5712.2456199999997
sg80
F5614.5520990000005
sg81
F1113.1321579999999
sg82
F7727.9687329999997
sg83
F6734.0314920000001
sg84
F23755.476200000001
sg85
F4133.2324660000004
sg86
F33443.047879999998
sg87
F15321.780640000001
sg88
Nsg89
F699.50048370000002
sg90
F11560.17346
sg91
Nsg92
F11456.61003
sg93
F929.5296889
sg94
F2896.36258
sg95
Nsg96
F11992.131950000001
sg97
F43069.581989999999
sg98
F11781.859909999999
sg99
F5166.0845929999996
sg100
F5216.0921470000003
sg101
F9604.491043
sg102
F9900.2459589999999
sg103
F26456.157670000001
sg104
F46820.490839999999
sg105
F67334.351439999999
sg106
F12941.78426
sg107
F36177.361109999998
sg108
F2610.5626900000002
sg109
F758.74507860000006
sg110
F1079.1600060000001
sg111
F2026.9256969999999
sg112
F17900.927609999999
sg113
F652.10946550000006
sg114
Nsg115
F9583.8661059999995
sg116
Nsg117
F1005.061994
sg118
F11675.385679999999
sg119
F10391.861339999999
sg120
F73349.640759999995
sg121
F3240.087884
sg122
Nsg123
F39294.286540000001
sg124
F12706.40164
sg125
Nsg126
F7127.9865929999996
sg127
F24359.493549999999
sg128
F34405.904880000002
sg129
F7367.1718129999999
sg130
F6150.744796
sg131
Nsg132
F15033.18341
sg133
Nsg134
F14110.628419999999
sg135
Nsg136
F33617.429620000003
sg137
F2257.9660159999999
sg138
F1046.8184120000001
sg139
F6218.9300739999999
sg140
F715.96810570000002
sg141
F4516.3382080000001
sg142
F34123.025000000001
sg143
F3382.4480050000002
sg144
F2768.2728189999998
sg145
F22036.848010000002
sg146
F3972.7952719999998
sg147
F17300.337909999998
sg148
F3561.74136
sg149
F1040.7040750000001
sg150
F7377.9639470000002
sg151
F9146.609187
sg152
F10531.20119
sg153
F2254.9446680000001
sg154
F3227.14329
sg155
F1262.005474
sg156
F18941.290939999999
sg157
Nsg158
F34300.562460000001
sg159
F12892.77693
sg160
F40579.147949999999
sg161
F2455.9995239999998
sg162
F2026.0155259999999
sg163
F990.36703580000005
sg164
F18628.99509
sg165
F28353.03543
sg166
F8250.3932999999997
sg167
F514.54598069999997
sg168
F4300.3321070000002
sg169
F18586.219120000002
sg170
F950.13139179999996
sg171
F28453.562099999999
sg172
Nsg173
F4314.5604480000002
sg174
F1959.5255669999999
sg175
F1021.020877
sg176
F48159.689769999997
sg177
F22922.470089999999
sg178
F38105.94485
sg179
F46759.891960000001
sg180
F6753.2563760000003
sg181
Nsg182
Nsg183
F10397.818590000001
sg184
F25646.278549999999
sg185
F3569.8090550000002
sg186
F36655.508249999999
sg187
F1277.75668
sg188
F1724.5070020000001
sg189
F2037.864744
sg190
F728.81157080000003
sg191
F24150.88322
sg192
Nsg193
F33828.874109999997
sg194
F10468.819020000001
sg195
F16454.807929999999
sg196
F489.80464310000002
sg197
Nsg198
F4202.5701730000001
sg199
F15646.972589999999
sg200
Nsg201
F2889.4024760000002
sg202
F3640.9195140000002
sg203
Nsg204
F30988.242259999999
sg205
F8183.2995490000003
sg206
F2493.6144159999999
sg207
F303.19305329999997
sg208
F9772.3967599999996
sg209
F12562.40408
sg210
F33717.886400000003
sg211
F1711.2486060000001
sg212
Nsg213
F26113.385760000001
sg214
F4353.1275750000004
sg215
F11027.607389999999
sg216
F997.64307010000005
ssI2009
(dp265
g3
F34526.903330000001
sg4
F1706.70372
sg5
F6881.4056229999997
sg6
F2161.8088200000002
sg7
F15088.86981
sg8
F1878.6824329999999
sg9
F36978.043400000002
sg10
F866.37067300000001
sg11
Nsg12
F5296.9726410000003
sg13
F13272.2035
sg14
F4244.0193170000002
sg15
F28459.740290000002
sg16
F1084.894192
sg17
F1401.456678
sg18
F20091.27908
sg19
F29625.390080000001
sg20
Nsg21
Nsg22
Nsg23
F24819.943940000001
sg24
F4280.7732489999999
sg25
F7389.7081939999998
sg26
F45626.180710000001
sg27
F13614.546700000001
sg28
F5245.6256160000003
sg29
F7994.6799940000001
sg30
F3591.7774009999998
sg31
F10925.94616
sg32
F455.29335930000002
sg33
F7079.6702379999997
sg34
F2356.9945670000002
sg35
F24226.471320000001
sg36
F1244.3780859999999
sg37
F7427.8079159999998
sg38
F13008.779990000001
sg39
Nsg40
F24648.731930000002
sg41
F7060.6734100000003
sg42
Nsg43
F3891.0985420000002
sg44
F19353.875759999999
sg45
F45202.303979999997
sg46
Nsg47
F11649.733270000001
sg48
F2812.5824520000001
sg49
F8589.5639150000006
sg50
F1374.010045
sg51
F1440.646851
sg52
F1845.6244059999999
sg53
F11655.230799999999
sg54
F1029.215154
sg55
F11315.46911
sg56
F1418.9868389999999
sg57
F2145.9194090000001
sg58
F2331.8812969999999
sg59
F25299.18491
sg60
Nsg61
Nsg62
F29160.56583
sg63
F4687.4968490000001
sg64
Nsg65
F5607.9034039999997
sg66
Nsg67
F7949.5705740000003
sg68
F3970.520892
sg69
F2030.4642839999999
sg70
F20382.953720000001
sg71
F47174.5959
sg72
F1687.7876229999999
sg73
Nsg74
F1422.2931040000001
sg75
Nsg76
F2038.359475
sg77
F9925.5352710000006
sg78
F884.58304929999997
sg79
F6206.2642939999996
sg80
F4810.8877199999997
sg81
F1218.8718409999999
sg82
F7887.2543539999997
sg83
F5762.9216059999999
sg84
F22037.236629999999
sg85
F4103.3870790000001
sg86
F30502.882669999999
sg87
F15361.15753
sg88
Nsg89
F698.18484249999995
sg90
F11850.35729
sg91
Nsg92
F11590.014569999999
sg93
F942.05303289999995
sg94
F2907.5968619999999
sg95
Nsg96
F11389.73302
sg97
F41187.655330000001
sg98
F10797.074490000001
sg99
F5143.2791029999998
sg100
F5365.1116009999996
sg101
F9355.7665440000001
sg102
F9664.7031019999995
sg103
F25789.708299999998
sg104
F45155.605309999999
sg105
F65894.001959999994
sg106
F12526.28391
sg107
F34681.087720000003
sg108
F2720.6863119999998
sg109
F788.25887869999997
sg110
F1120.5951669999999
sg111
F2060.403444
sg112
F16709.77564
sg113
F623.69884939999997
sg114
Nsg115
F9468.2075220000006
sg116
Nsg117
F981.49467149999998
sg118
F11855.635619999999
sg119
F10133.386560000001
sg120
F68188.427179999999
sg121
F3331.3306940000002
sg122
Nsg123
F36273.247499999998
sg124
F12367.42187
sg125
Nsg126
F7051.0372360000001
sg127
F23076.649280000001
sg128
F34183.62126
sg129
F7431.2801650000001
sg130
F5928.2558010000002
sg131
Nsg132
F14013.868399999999
sg133
Nsg134
F13832.49022
sg135
Nsg136
F32414.0013
sg137
F2209.0047909999998
sg138
F1062.978034
sg139
F6011.7568330000004
sg140
F722.50793629999998
sg141
F4319.1107760000004
sg142
F31960.902320000001
sg143
F3364.209758
sg144
F2605.7522909999998
sg145
F21375.675279999999
sg146
F4119.1759670000001
sg147
F16282.22616
sg148
F3459.2567720000002
sg149
F1049.95172
sg150
F7160.1153480000003
sg151
F9043.7317800000001
sg152
F9897.3811459999997
sg153
F2271.6883349999998
sg154
F3263.9931919999999
sg155
F1214.561269
sg156
F16245.561229999999
sg157
Nsg158
F32299.679990000001
sg159
F11936.463089999999
sg160
F39352.894840000001
sg161
F2610.5039390000002
sg162
F2087.1696710000001
sg163
F1000.258414
sg164
F16526.505789999999
sg165
F27082.63438
sg166
F8267.5668119999991
sg167
F517.57137060000002
sg168
F4202.418858
sg169
F17564.366160000001
sg170
F880.59825139999998
sg171
F26729.15091
sg172
Nsg173
F4525.4830510000002
sg174
F1986.1960180000001
sg175
F1048.180797
sg176
F46270.870190000001
sg177
F22204.420020000001
sg178
F36569.695240000001
sg179
F46426.256419999998
sg180
F6892.6124870000003
sg181
Nsg182
Nsg183
F10462.270839999999
sg184
F25250.153859999999
sg185
F3696.297262
sg186
F34043.948259999997
sg187
F1322.7999990000001
sg188
F1714.071107
sg189
F2100.5255550000002
sg190
F770.59788460000004
sg191
F23261.124510000001
sg192
Nsg193
F32175.885859999999
sg194
F10318.297070000001
sg195
F16711.311689999999
sg196
F493.77355369999998
sg197
Nsg198
F4301.720147
sg199
F12901.66675
sg200
Nsg201
F2979.6018829999998
sg202
F3492.954557
sg203
Nsg204
F31861.435170000001
sg205
F8347.2916870000008
sg206
F2424.8552330000002
sg207
F303.38844340000003
sg208
F9468.2527800000007
sg209
F11794.8246
sg210
F32025.500769999999
sg211
F1775.568268
sg212
Nsg213
F25162.285500000002
sg214
F4111.9908839999998
sg215
F11879.214959999999
sg216
F989.11119580000002
ssI2010
(dp266
g3
F35222.882060000004
sg4
F1752.619623
sg5
F7421.6099080000004
sg6
F2312.5647600000002
sg7
F15534.43224
sg8
F1968.1316890000001
sg9
F37582.121449999999
sg10
F932.23523250000005
sg11
Nsg12
F5341.5019869999996
sg13
F14362.615809999999
sg14
F4349.5507790000001
sg15
F28134.848020000001
sg16
F1136.035599
sg17
F1478.462669
sg18
F20534.469779999999
sg19
F30965.40566
sg20
Nsg21
Nsg22
Nsg23
F25052.855920000002
sg24
F4296.5610500000003
sg25
F7463.7506549999998
sg26
F45622.718860000001
sg27
F14198.971649999999
sg28
F5249.4965949999996
sg29
F8268.0911830000005
sg30
F3808.093879
sg31
F10989.21153
sg32
F482.25614359999997
sg33
F7386.633511
sg34
F2410.852891
sg35
F24559.00331
sg36
F1293.0810309999999
sg37
F7660.0438139999997
sg38
F13610.562739999999
sg39
Nsg40
F24818.031559999999
sg41
F7000.9083879999998
sg42
Nsg43
F3942.9776320000001
sg44
F20120.693019999999
sg45
F42352.95998
sg46
Nsg47
F12641.940909999999
sg48
F3038.8079889999999
sg49
F8912.3704969999999
sg50
F1436.2936319999999
sg51
F1481.1955740000001
sg52
F1938.3728920000001
sg53
F12564.039140000001
sg54
F1082.949267
sg55
F10973.03882
sg56
F1488.2868109999999
sg57
F2203.6135359999998
sg58
F2430.0956150000002
sg59
F26774.03745
sg60
Nsg61
Nsg62
F29483.65768
sg63
F4740.8497729999999
sg64
Nsg65
F5870.143478
sg66
Nsg67
F8558.3590980000008
sg68
F3991.4836100000002
sg69
F2134.9455360000002
sg70
F21945.150989999998
sg71
F46905.797610000001
sg72
F1694.3399979999999
sg73
Nsg74
F1423.8893270000001
sg75
Nsg76
F2058.0931500000002
sg77
F10156.67699
sg78
F898.2186964
sg79
F6818.707496
sg80
F4900.4743330000001
sg81
F1296.418954
sg82
F8386.9213830000008
sg83
F6023.0827399999998
sg84
F21345.191060000001
sg85
F4062.5702430000001
sg86
F31496.67958
sg87
Nsg88
Nsg89
F707.63588460000005
sg90
F12283.219139999999
sg91
Nsg92
F12504.80624
sg93
F966.86256549999996
sg94
F2987.9852340000002
sg95
Nsg96
F11512.45824
sg97
F42078.594109999998
sg98
F10920.975850000001
sg99
F5171.7139479999996
sg100
F5543.5372269999998
sg101
F9496.8787439999996
sg102
F9481.7790010000008
sg103
F25961.046719999998
sg104
F45506.589059999998
sg105
F69797.940759999998
sg106
F13213.89747
sg107
F35380.237659999999
sg108
F2875.0725499999999
sg109
F822.70750510000005
sg110
F1149.1905670000001
sg111
F2008.327256
sg112
F16958.294979999999
sg113
F650.15886920000003
sg114
Nsg115
F10092.72696
sg116
Nsg117
F978.4095284
sg118
F12638.74517
sg119
F10452.569729999999
sg120
F68748.104619999998
sg121
F3473.9445770000002
sg122
Nsg123
F35993.083890000002
sg124
F12537.129580000001
sg125
Nsg126
F7200.9906689999998
sg127
F23635.21602
sg128
F34409.474419999999
sg129
F7564.3911410000001
sg130
F5977.5604569999996
sg131
Nsg132
F13467.588890000001
sg133
Nsg134
F14540.16023
sg135
Nsg136
F32837.35224
sg137
F2214.4523210000002
sg138
F992.4278918
sg139
F5979.7150590000001
sg140
F741.68840809999995
sg141
F4545.8995349999996
sg142
F32231.50202
sg143
F3560.49503
sg144
F2793.5349630000001
sg145
F21665.303540000001
sg146
F4226.7585300000001
sg147
F16128.31697
sg148
F3620.244549
sg149
F1064.1100570000001
sg150
F7672.8869450000002
sg151
F9187.3538989999997
sg152
F9735.3803189999999
sg153
F2372.9815309999999
sg154
F3194.9486510000002
sg155
F1336.989045
sg156
F16614.647140000001
sg157
Nsg158
F33995.914369999999
sg159
F12440.93981
sg160
F41714.04004
sg161
F2753.5604210000001
sg162
Nsg163
F1040.713293
sg164
F14904.48839
sg165
F26968.43187
sg166
F8479.351874
sg167
F523.5815877
sg168
F4153.5662089999996
sg169
Nsg170
F868.924802
sg171
F27080.68577
sg172
Nsg173
F4780.116712
sg174
F2023.4510399999999
sg175
F1079.352811
sg176
F52169.959080000001
sg177
F22696.679960000001
sg178
F36997.311099999999
sg179
F57626.201829999998
sg180
F7110.2452590000003
sg181
Nsg182
Nsg183
Nsg184
F25994.53786
sg185
F3885.0984199999998
sg186
F32721.125049999999
sg187
F1401.1499550000001
sg188
F1738.002772
sg189
F2217.3283409999999
sg190
F795.49212169999998
sg191
F23167.778119999999
sg192
Nsg193
F33414.443189999998
sg194
F10915.663130000001
sg195
F17348.144199999999
sg196
F489.69864910000001
sg197
Nsg198
F4600.8730299999997
sg199
F12948.228779999999
sg200
Nsg201
F3103.736191
sg202
F3518.6923470000002
sg203
Nsg204
F30750.325970000002
sg205
F8508.4659250000004
sg206
F2499.3883930000002
sg207
F316.47152410000001
sg208
F9597.0833079999993
sg209
F12462.61406
sg210
F32474.702430000001
sg211
F1833.317076
sg212
Nsg213
F24207.138060000001
sg214
F4648.1070140000002
sg215
F12618.736510000001
sg216
F983.8008284
ssI2011
(dp267
g3
F35716.02764
sg4
F1805.1101980000001
sg5
F8055.2101300000004
sg6
F2463.838753
sg7
F16876.690279999999
sg8
F2079.9850099999999
sg9
F37979.009059999997
sg10
F979.21101139999996
sg11
Nsg12
F5348.7784700000002
sg13
F15501.42072
sg14
F4499.1971809999995
sg15
F28239.057410000001
sg16
F1148.517615
sg17
F1652.338665
sg18
F21430.214660000001
sg19
F30660.403450000002
sg20
Nsg21
Nsg22
Nsg23
F24967.46976
sg24
F4351.3591699999997
sg25
F7607.441804
sg26
F47935.039859999997
sg27
F14808.483990000001
sg28
F5268.5771489999997
sg29
F8231.4705080000003
sg30
F3884.8562390000002
sg31
F11119.608410000001
sg32
F506.12778589999999
sg33
F7833.9621399999996
sg34
F2423.664428
sg35
F25329.767479999999
sg36
F1334.0449980000001
sg37
F7861.1314810000003
sg38
F13997.92712
sg39
Nsg40
Nsg41
F7073.5968510000002
sg42
Nsg43
F4008.4180350000001
sg44
F20756.729510000001
sg45
F42293.054519999998
sg46
Nsg47
F13314.92668
sg48
F3203.0028040000002
sg49
F8889.890598
sg50
F1503.8758869999999
sg51
F1507.0401199999999
sg52
F2052.4750749999998
sg53
F13466.33282
sg54
Nsg55
F11257.963970000001
sg56
F1568.437856
sg57
F2254.9921559999998
sg58
F2581.0861300000001
sg59
F27541.34348
sg60
Nsg61
Nsg62
F29818.800640000001
sg63
Nsg64
Nsg65
F5986.4109989999997
sg66
Nsg67
F9049.3209879999995
sg68
F4061.962833
sg69
F2220.6844000000001
sg70
F23172.15987
sg71
F46981.557610000003
sg72
F1581.4475299999999
sg73
Nsg74
F1427.694066
sg75
Nsg76
F2090.2827459999999
sg77
F10401.9566
sg78
F914.04703489999997
sg79
F7417.8877270000003
sg80
F5112.3978850000003
sg81
F1393.1390449999999
sg82
F8650.6111540000002
sg83
F6359.1017080000001
sg84
Nsg85
F4091.926532
sg86
F32253.625700000001
sg87
Nsg88
Nsg89
F715.62354679999999
sg90
F12737.237929999999
sg91
Nsg92
F13191.191140000001
sg93
F963.52092279999999
sg94
F3016.833106
sg95
Nsg96
F11799.45649
sg97
F42485.983359999998
sg98
F10905.38262
sg99
F5201.3086940000003
sg100
F5546.5251310000003
sg101
F9678.1618720000006
sg102
F9482.4341760000007
sg103
F26045.445769999998
sg104
Nsg105
F77987.078349999996
sg106
F13672.132509999999
sg107
F36352.997479999998
sg108
F3012.6628449999998
sg109
F861.27522859999999
sg110
F1187.650934
sg111
F2125.8484990000002
sg112
F17295.386139999999
sg113
F642.05601160000003
sg114
Nsg115
F10278.429749999999
sg116
Nsg117
F989.67964410000002
sg118
F13765.7562
sg119
F10731.8891
sg120
F68458.694470000002
sg121
F3615.8038809999998
sg122
Nsg123
F35640.416709999998
sg124
F13176.107690000001
sg125
Nsg126
F7443.0480580000003
sg127
F23966.64661
sg128
F34548.319689999997
sg129
F7643.1714339999999
sg130
F6031.8845819999997
sg131
Nsg132
F13291.099550000001
sg133
Nsg134
F15271.793240000001
sg135
Nsg136
F33126.51554
sg137
F2219.815302
sg138
F1034.3958889999999
sg139
F5895.7709940000004
sg140
F769.15501619999998
sg141
F4826.0159549999998
sg142
F32399.304670000001
sg143
F3630.9392459999999
sg144
F2974.8784489999998
sg145
F21317.27548
sg146
F4373.3225659999998
sg147
F16162.191989999999
sg148
F4178.2903050000004
sg149
F1097.4489349999999
sg150
F7633.010225
sg151
F9451.1918719999994
sg152
F9805.8507750000008
sg153
F2060.2832899999999
sg154
F3412.1555130000002
sg155
F1342.7608130000001
sg156
F17885.429240000001
sg157
Nsg158
F35047.55917
sg159
F12776.388639999999
sg160
F43844.147510000003
sg161
F2902.9522510000002
sg162
Nsg163
F1097.2732169999999
sg164
F14139.045690000001
sg165
F27063.001619999999
sg166
F8861.0586320000002
sg167
F533.29312319999997
sg168
F4198.6671029999998
sg169
Nsg170
F852.76597919999995
sg171
F27069.151620000001
sg172
Nsg173
F5095.5974990000004
sg174
F1877.7182769999999
sg175
F1101.9130789999999
sg176
F53591.090909999999
sg177
F23007.115020000001
sg178
F37250.715700000001
sg179
F68066.091639999999
sg180
Nsg181
Nsg182
Nsg183
Nsg184
F26719.966759999999
sg185
F4094.0621460000002
sg186
F33618.148269999998
sg187
F1423.4494110000001
sg188
F1737.1058149999999
sg189
F2363.2826030000001
sg190
F805.40366919999997
sg191
F22760.545770000001
sg192
Nsg193
F34436.848700000002
sg194
F11567.68059
sg195
F18087.442729999999
sg196
F516.49966040000004
sg197
Nsg198
F4928.9903430000004
sg199
F13773.426030000001
sg200
Nsg201
Nsg202
F3565.998012
sg203
Nsg204
F32025.730049999998
sg205
F8257.6999799999994
sg206
F2579.3216819999998
sg207
F329.2991907
sg208
F9809.0001940000002
sg209
F12938.9483
sg210
F32473.547719999999
sg211
F1872.7776449999999
sg212
Nsg213
F22558.0344
sg214
F4752.3460029999997
sg215
F12900.23856
sg216
F980.10982879999995
ss.