(dp1
I1960
(dp2
S'Canada'
p3
NsS'Sao Tome and Principe'
p4
NsS'Turkmenistan'
p5
NsS'Lao PDR'
p6
NsS'Lithuania'
p7
NsS'Cambodia'
p8
NsS'Switzerland'
p9
NsS'Ethiopia'
p10
NsS'Aruba'
p11
NsS'Swaziland'
p12
NsS'Argentina'
p13
NsS'Bolivia'
p14
NsS'Bahamas, The'
p15
NsS'Burkina Faso'
p16
NsS'Ghana'
p17
NsS'Saudi Arabia'
p18
NsS'Japan'
p19
NsS'Channel Islands'
p20
NsS'American Samoa'
p21
NsS'Northern Mariana Islands'
p22
NsS'Slovenia'
p23
NsS'Guatemala'
p24
NsS'Bosnia and Herzegovina'
p25
NsS'Kuwait'
p26
NsS'Russian Federation'
p27
NsS'Jordan'
p28
NsS'St. Lucia'
p29
NsS'Congo, Rep.'
p30
NsS'Dominica'
p31
NsS'Liberia'
p32
NsS'Maldives'
p33
NsS'Pakistan'
p34
NsS'Oman'
p35
NsS'Tanzania'
p36
NsS'Albania'
p37
NsS'Gabon'
p38
NsS'Monaco'
p39
NsS'New Zealand'
p40
NsS'Jamaica'
p41
NsS'Greenland'
p42
NsS'Samoa'
p43
NsS'Slovak Republic'
p44
NsS'United Arab Emirates'
p45
NsS'Guam'
p46
NsS'Uruguay'
p47
NsS'India'
p48
NsS'Azerbaijan'
p49
NsS'Lesotho'
p50
NsS'Kenya'
p51
NsS'Tajikistan'
p52
NsS'Turkey'
p53
NsS'Afghanistan'
p54
NsS'Venezuela, RB'
p55
NsS'Bangladesh'
p56
NsS'Mauritania'
p57
NsS'Solomon Islands'
p58
NsS'Korea, Rep.'
p59
NsS'San Marino'
p60
NsS'French Polynesia'
p61
NsS'France'
p62
NsS'Syrian Arab Republic'
p63
NsS'Bermuda'
p64
NsS'Namibia'
p65
NsS'Somalia'
p66
NsS'Peru'
p67
NsS'Vanuatu'
p68
NsS'Nigeria'
p69
NsS'Seychelles'
p70
NsS'Norway'
p71
NsS"Cote d'Ivoire"
p72
NsS'West Bank and Gaza'
p73
NsS'Benin'
p74
NsS'Cuba'
p75
NsS'Cameroon'
p76
NsS'Montenegro'
p77
NsS'Togo'
p78
NsS'China'
p79
NsS'Armenia'
p80
NsS'Timor-Leste'
p81
NsS'Dominican Republic'
p82
NsS'Ukraine'
p83
NsS'Bahrain'
p84
NsS'Tonga'
p85
NsS'Finland'
p86
NsS'Libya'
p87
NsS'Cayman Islands'
p88
NsS'Central African Republic'
p89
NsS'Mauritius'
p90
NsS'Liechtenstein'
p91
NsS'Belarus'
p92
NsS'Mali'
p93
NsS'Micronesia, Fed. Sts.'
p94
NsS'Korea, Dem. Rep.'
p95
NsS'Bulgaria'
p96
NsS'United States'
p97
NsS'Romania'
p98
NsS'Angola'
p99
NsS'Egypt, Arab Rep.'
p100
NsS'South Africa'
p101
NsS'St. Vincent and the Grenadines'
p102
NsS'Cyprus'
p103
NsS'Brunei Darussalam'
p104
NsS'Qatar'
p105
NsS'Malaysia'
p106
NsS'Austria'
p107
NsS'Vietnam'
p108
NsS'Mozambique'
p109
NsS'Uganda'
p110
NsS'Kyrgyz Republic'
p111
NsS'Hungary'
p112
NsS'Niger'
p113
NsS'Isle of Man'
p114
NsS'Brazil'
p115
NsS'Virgin Islands (U.S.)'
p116
NsS'Guinea'
p117
NsS'Panama'
p118
NsS'Costa Rica'
p119
NsS'Luxembourg'
p120
NsS'Cape Verde'
p121
NsS'Andorra'
p122
NsS'Ireland'
p123
NsS'Palau'
p124
NsS'Faeroe Islands'
p125
NsS'Ecuador'
p126
NsS'Czech Republic'
p127
NsS'Australia'
p128
NsS'Algeria'
p129
NsS'El Salvador'
p130
NsS'Tuvalu'
p131
NsS'St. Kitts and Nevis'
p132
NsS'Marshall Islands'
p133
NsS'Chile'
p134
NsS'Puerto Rico'
p135
NsS'Belgium'
p136
NsS'Kiribati'
p137
NsS'Haiti'
p138
NsS'Belize'
p139
NsS'Sierra Leone'
p140
NsS'Georgia'
p141
NsS'Denmark'
p142
NsS'Philippines'
p143
NsS'Moldova'
p144
NsS'Portugal'
p145
NsS'Morocco'
p146
NsS'Croatia'
p147
NsS'Mongolia'
p148
NsS'Guinea-Bissau'
p149
NsS'Thailand'
p150
NsS'Macedonia, FYR'
p151
NsS'Grenada'
p152
NsS'Yemen, Rep.'
p153
NsS'Iraq'
p154
NsS'Chad'
p155
NsS'Estonia'
p156
NsS'Kosovo'
p157
NsS'Sweden'
p158
NsS'Mexico'
p159
NsS'Hong Kong SAR, China'
p160
NsS'Uzbekistan'
p161
NsS'Djibouti'
p162
NsS'Rwanda'
p163
NsS'Antigua and Barbuda'
p164
NsS'Spain'
p165
NsS'Colombia'
p166
NsS'Burundi'
p167
NsS'Fiji'
p168
NsS'Barbados'
p169
NsS'Madagascar'
p170
NsS'Italy'
p171
NsS'Curacao'
p172
NsS'Bhutan'
p173
NsS'Sudan'
p174
NsS'Nepal'
p175
NsS'Singapore'
p176
NsS'Malta'
p177
NsS'Netherlands'
p178
NsS'Macao SAR, China'
p179
NsS'Suriname'
p180
NsS'Turks and Caicos Islands'
p181
NsS'St. Martin (French part)'
p182
NsS'Iran, Islamic Rep.'
p183
NsS'Israel'
p184
NsS'Indonesia'
p185
NsS'Iceland'
p186
NsS'Zambia'
p187
NsS'Senegal'
p188
NsS'Papua New Guinea'
p189
NsS'Malawi'
p190
NsS'Trinidad and Tobago'
p191
NsS'Zimbabwe'
p192
NsS'Germany'
p193
NsS'Kazakhstan'
p194
NsS'Poland'
p195
NsS'Eritrea'
p196
NsS'New Caledonia'
p197
NsS'Sri Lanka'
p198
NsS'Latvia'
p199
NsS'South Sudan'
p200
NsS'Guyana'
p201
NsS'Honduras'
p202
NsS'Myanmar'
p203
NsS'Equatorial Guinea'
p204
NsS'Tunisia'
p205
NsS'Nicaragua'
p206
NsS'Congo, Dem. Rep.'
p207
NsS'Serbia'
p208
NsS'Botswana'
p209
NsS'United Kingdom'
p210
NsS'Gambia, The'
p211
NsS'Sint Maarten (Dutch part)'
p212
NsS'Greece'
p213
NsS'Paraguay'
p214
NsS'Lebanon'
p215
NsS'Comoros'
p216
NssI1961
(dp217
g3
Nsg4
Nsg5
Nsg6
Nsg7
Nsg8
Nsg9
Nsg10
Nsg11
Nsg12
Nsg13
Nsg14
Nsg15
Nsg16
Nsg17
Nsg18
Nsg19
Nsg20
Nsg21
Nsg22
Nsg23
Nsg24
Nsg25
Nsg26
Nsg27
Nsg28
Nsg29
Nsg30
Nsg31
Nsg32
Nsg33
Nsg34
Nsg35
Nsg36
Nsg37
Nsg38
Nsg39
Nsg40
Nsg41
Nsg42
Nsg43
Nsg44
Nsg45
Nsg46
Nsg47
Nsg48
Nsg49
Nsg50
Nsg51
Nsg52
Nsg53
Nsg54
Nsg55
Nsg56
Nsg57
Nsg58
Nsg59
Nsg60
Nsg61
Nsg62
Nsg63
Nsg64
Nsg65
Nsg66
Nsg67
Nsg68
Nsg69
Nsg70
Nsg71
Nsg72
Nsg73
Nsg74
Nsg75
Nsg76
Nsg77
Nsg78
Nsg79
Nsg80
Nsg81
Nsg82
Nsg83
Nsg84
Nsg85
Nsg86
Nsg87
Nsg88
Nsg89
Nsg90
Nsg91
Nsg92
Nsg93
Nsg94
Nsg95
Nsg96
Nsg97
Nsg98
Nsg99
Nsg100
Nsg101
Nsg102
Nsg103
Nsg104
Nsg105
Nsg106
Nsg107
Nsg108
Nsg109
Nsg110
Nsg111
Nsg112
Nsg113
Nsg114
Nsg115
Nsg116
Nsg117
Nsg118
Nsg119
Nsg120
Nsg121
Nsg122
Nsg123
Nsg124
Nsg125
Nsg126
Nsg127
Nsg128
Nsg129
Nsg130
Nsg131
Nsg132
Nsg133
Nsg134
Nsg135
Nsg136
Nsg137
Nsg138
Nsg139
Nsg140
Nsg141
Nsg142
Nsg143
Nsg144
Nsg145
Nsg146
Nsg147
Nsg148
Nsg149
Nsg150
Nsg151
Nsg152
Nsg153
Nsg154
Nsg155
Nsg156
Nsg157
Nsg158
Nsg159
Nsg160
Nsg161
Nsg162
Nsg163
Nsg164
Nsg165
Nsg166
Nsg167
Nsg168
Nsg169
Nsg170
Nsg171
Nsg172
Nsg173
Nsg174
Nsg175
Nsg176
Nsg177
Nsg178
Nsg179
Nsg180
Nsg181
Nsg182
Nsg183
Nsg184
Nsg185
Nsg186
Nsg187
Nsg188
Nsg189
Nsg190
Nsg191
Nsg192
Nsg193
Nsg194
Nsg195
Nsg196
Nsg197
Nsg198
Nsg199
Nsg200
Nsg201
Nsg202
Nsg203
Nsg204
Nsg205
Nsg206
Nsg207
Nsg208
Nsg209
Nsg210
Nsg211
Nsg212
Nsg213
Nsg214
Nsg215
Nsg216
NssI1962
(dp218
g3
Nsg4
Nsg5
Nsg6
Nsg7
Nsg8
Nsg9
Nsg10
Nsg11
Nsg12
Nsg13
Nsg14
Nsg15
Nsg16
Nsg17
Nsg18
Nsg19
Nsg20
Nsg21
Nsg22
Nsg23
Nsg24
Nsg25
Nsg26
Nsg27
Nsg28
Nsg29
Nsg30
Nsg31
Nsg32
Nsg33
Nsg34
Nsg35
Nsg36
Nsg37
Nsg38
Nsg39
Nsg40
Nsg41
Nsg42
Nsg43
Nsg44
Nsg45
Nsg46
Nsg47
Nsg48
Nsg49
Nsg50
Nsg51
Nsg52
Nsg53
Nsg54
Nsg55
Nsg56
Nsg57
Nsg58
Nsg59
Nsg60
Nsg61
Nsg62
Nsg63
Nsg64
Nsg65
Nsg66
Nsg67
Nsg68
Nsg69
Nsg70
Nsg71
Nsg72
Nsg73
Nsg74
Nsg75
Nsg76
Nsg77
Nsg78
Nsg79
Nsg80
Nsg81
Nsg82
Nsg83
Nsg84
Nsg85
Nsg86
Nsg87
Nsg88
Nsg89
Nsg90
Nsg91
Nsg92
Nsg93
Nsg94
Nsg95
Nsg96
Nsg97
Nsg98
Nsg99
Nsg100
Nsg101
Nsg102
Nsg103
Nsg104
Nsg105
Nsg106
Nsg107
Nsg108
Nsg109
Nsg110
Nsg111
Nsg112
Nsg113
Nsg114
Nsg115
Nsg116
Nsg117
Nsg118
Nsg119
Nsg120
Nsg121
Nsg122
Nsg123
Nsg124
Nsg125
Nsg126
Nsg127
Nsg128
Nsg129
Nsg130
Nsg131
Nsg132
Nsg133
Nsg134
Nsg135
Nsg136
Nsg137
Nsg138
Nsg139
Nsg140
Nsg141
Nsg142
Nsg143
Nsg144
Nsg145
Nsg146
Nsg147
Nsg148
Nsg149
Nsg150
Nsg151
Nsg152
Nsg153
Nsg154
Nsg155
Nsg156
Nsg157
Nsg158
Nsg159
Nsg160
Nsg161
Nsg162
Nsg163
Nsg164
Nsg165
Nsg166
Nsg167
Nsg168
Nsg169
Nsg170
Nsg171
Nsg172
Nsg173
Nsg174
Nsg175
Nsg176
Nsg177
Nsg178
Nsg179
Nsg180
Nsg181
Nsg182
Nsg183
Nsg184
Nsg185
Nsg186
Nsg187
Nsg188
Nsg189
Nsg190
Nsg191
Nsg192
Nsg193
Nsg194
Nsg195
Nsg196
Nsg197
Nsg198
Nsg199
Nsg200
Nsg201
Nsg202
Nsg203
Nsg204
Nsg205
Nsg206
Nsg207
Nsg208
Nsg209
Nsg210
Nsg211
Nsg212
Nsg213
Nsg214
Nsg215
Nsg216
NssI1963
(dp219
g3
Nsg4
Nsg5
Nsg6
Nsg7
Nsg8
Nsg9
Nsg10
Nsg11
Nsg12
Nsg13
Nsg14
Nsg15
Nsg16
Nsg17
Nsg18
Nsg19
Nsg20
Nsg21
Nsg22
Nsg23
Nsg24
Nsg25
Nsg26
Nsg27
Nsg28
Nsg29
Nsg30
Nsg31
Nsg32
Nsg33
Nsg34
Nsg35
Nsg36
Nsg37
Nsg38
Nsg39
Nsg40
Nsg41
Nsg42
Nsg43
Nsg44
Nsg45
Nsg46
Nsg47
Nsg48
Nsg49
Nsg50
Nsg51
Nsg52
Nsg53
Nsg54
Nsg55
Nsg56
Nsg57
Nsg58
Nsg59
Nsg60
Nsg61
Nsg62
Nsg63
Nsg64
Nsg65
Nsg66
Nsg67
Nsg68
Nsg69
Nsg70
Nsg71
Nsg72
Nsg73
Nsg74
Nsg75
Nsg76
Nsg77
Nsg78
Nsg79
Nsg80
Nsg81
Nsg82
Nsg83
Nsg84
Nsg85
Nsg86
Nsg87
Nsg88
Nsg89
Nsg90
Nsg91
Nsg92
Nsg93
Nsg94
Nsg95
Nsg96
Nsg97
Nsg98
Nsg99
Nsg100
Nsg101
Nsg102
Nsg103
Nsg104
Nsg105
Nsg106
Nsg107
Nsg108
Nsg109
Nsg110
Nsg111
Nsg112
Nsg113
Nsg114
Nsg115
Nsg116
Nsg117
Nsg118
Nsg119
Nsg120
Nsg121
Nsg122
Nsg123
Nsg124
Nsg125
Nsg126
Nsg127
Nsg128
Nsg129
Nsg130
Nsg131
Nsg132
Nsg133
Nsg134
Nsg135
Nsg136
Nsg137
Nsg138
Nsg139
Nsg140
Nsg141
Nsg142
Nsg143
Nsg144
Nsg145
Nsg146
Nsg147
Nsg148
Nsg149
Nsg150
Nsg151
Nsg152
Nsg153
Nsg154
Nsg155
Nsg156
Nsg157
Nsg158
Nsg159
Nsg160
Nsg161
Nsg162
Nsg163
Nsg164
Nsg165
Nsg166
Nsg167
Nsg168
Nsg169
Nsg170
Nsg171
Nsg172
Nsg173
Nsg174
Nsg175
Nsg176
Nsg177
Nsg178
Nsg179
Nsg180
Nsg181
Nsg182
Nsg183
Nsg184
Nsg185
Nsg186
Nsg187
Nsg188
Nsg189
Nsg190
Nsg191
Nsg192
Nsg193
Nsg194
Nsg195
Nsg196
Nsg197
Nsg198
Nsg199
Nsg200
Nsg201
Nsg202
Nsg203
Nsg204
Nsg205
Nsg206
Nsg207
Nsg208
Nsg209
Nsg210
Nsg211
Nsg212
Nsg213
Nsg214
Nsg215
Nsg216
NssI1964
(dp220
g3
Nsg4
Nsg5
Nsg6
Nsg7
Nsg8
Nsg9
Nsg10
Nsg11
Nsg12
Nsg13
Nsg14
Nsg15
Nsg16
Nsg17
Nsg18
Nsg19
Nsg20
Nsg21
Nsg22
Nsg23
Nsg24
Nsg25
Nsg26
Nsg27
Nsg28
Nsg29
Nsg30
Nsg31
Nsg32
Nsg33
Nsg34
Nsg35
Nsg36
Nsg37
Nsg38
Nsg39
Nsg40
Nsg41
Nsg42
Nsg43
Nsg44
Nsg45
Nsg46
Nsg47
Nsg48
Nsg49
Nsg50
Nsg51
Nsg52
Nsg53
Nsg54
Nsg55
Nsg56
Nsg57
Nsg58
Nsg59
Nsg60
Nsg61
Nsg62
Nsg63
Nsg64
Nsg65
Nsg66
Nsg67
Nsg68
Nsg69
Nsg70
Nsg71
Nsg72
Nsg73
Nsg74
Nsg75
Nsg76
Nsg77
Nsg78
Nsg79
Nsg80
Nsg81
Nsg82
Nsg83
Nsg84
Nsg85
Nsg86
Nsg87
Nsg88
Nsg89
Nsg90
Nsg91
Nsg92
Nsg93
Nsg94
Nsg95
Nsg96
Nsg97
Nsg98
Nsg99
Nsg100
Nsg101
Nsg102
Nsg103
Nsg104
Nsg105
Nsg106
Nsg107
Nsg108
Nsg109
Nsg110
Nsg111
Nsg112
Nsg113
Nsg114
Nsg115
Nsg116
Nsg117
Nsg118
Nsg119
Nsg120
Nsg121
Nsg122
Nsg123
Nsg124
Nsg125
Nsg126
Nsg127
Nsg128
Nsg129
Nsg130
Nsg131
Nsg132
Nsg133
Nsg134
Nsg135
Nsg136
Nsg137
Nsg138
Nsg139
Nsg140
Nsg141
Nsg142
Nsg143
Nsg144
Nsg145
Nsg146
Nsg147
Nsg148
Nsg149
Nsg150
Nsg151
Nsg152
Nsg153
Nsg154
Nsg155
Nsg156
Nsg157
Nsg158
Nsg159
Nsg160
Nsg161
Nsg162
Nsg163
Nsg164
Nsg165
Nsg166
Nsg167
Nsg168
Nsg169
Nsg170
Nsg171
Nsg172
Nsg173
Nsg174
Nsg175
Nsg176
Nsg177
Nsg178
Nsg179
Nsg180
Nsg181
Nsg182
Nsg183
Nsg184
Nsg185
Nsg186
Nsg187
Nsg188
Nsg189
Nsg190
Nsg191
Nsg192
Nsg193
Nsg194
Nsg195
Nsg196
Nsg197
Nsg198
Nsg199
Nsg200
Nsg201
Nsg202
Nsg203
Nsg204
Nsg205
Nsg206
Nsg207
Nsg208
Nsg209
Nsg210
Nsg211
Nsg212
Nsg213
Nsg214
Nsg215
Nsg216
NssI1965
(dp221
g3
Nsg4
Nsg5
Nsg6
Nsg7
Nsg8
Nsg9
Nsg10
Nsg11
Nsg12
Nsg13
Nsg14
Nsg15
Nsg16
Nsg17
Nsg18
Nsg19
Nsg20
Nsg21
Nsg22
Nsg23
Nsg24
Nsg25
Nsg26
Nsg27
Nsg28
Nsg29
Nsg30
Nsg31
Nsg32
Nsg33
Nsg34
Nsg35
Nsg36
Nsg37
Nsg38
Nsg39
Nsg40
Nsg41
Nsg42
Nsg43
Nsg44
Nsg45
Nsg46
Nsg47
Nsg48
Nsg49
Nsg50
Nsg51
Nsg52
Nsg53
Nsg54
Nsg55
Nsg56
Nsg57
Nsg58
Nsg59
Nsg60
Nsg61
Nsg62
Nsg63
Nsg64
Nsg65
Nsg66
Nsg67
Nsg68
Nsg69
Nsg70
Nsg71
Nsg72
Nsg73
Nsg74
Nsg75
Nsg76
Nsg77
Nsg78
Nsg79
Nsg80
Nsg81
Nsg82
Nsg83
Nsg84
Nsg85
Nsg86
Nsg87
Nsg88
Nsg89
Nsg90
Nsg91
Nsg92
Nsg93
Nsg94
Nsg95
Nsg96
Nsg97
Nsg98
Nsg99
Nsg100
Nsg101
Nsg102
Nsg103
Nsg104
Nsg105
Nsg106
Nsg107
Nsg108
Nsg109
Nsg110
Nsg111
Nsg112
Nsg113
Nsg114
Nsg115
Nsg116
Nsg117
Nsg118
Nsg119
Nsg120
Nsg121
Nsg122
Nsg123
Nsg124
Nsg125
Nsg126
Nsg127
Nsg128
Nsg129
Nsg130
Nsg131
Nsg132
Nsg133
Nsg134
Nsg135
Nsg136
Nsg137
Nsg138
Nsg139
Nsg140
Nsg141
Nsg142
Nsg143
Nsg144
Nsg145
Nsg146
Nsg147
Nsg148
Nsg149
Nsg150
Nsg151
Nsg152
Nsg153
Nsg154
Nsg155
Nsg156
Nsg157
Nsg158
Nsg159
Nsg160
Nsg161
Nsg162
Nsg163
Nsg164
Nsg165
Nsg166
Nsg167
Nsg168
Nsg169
Nsg170
Nsg171
Nsg172
Nsg173
Nsg174
Nsg175
Nsg176
Nsg177
Nsg178
Nsg179
Nsg180
Nsg181
Nsg182
Nsg183
Nsg184
Nsg185
Nsg186
Nsg187
Nsg188
Nsg189
Nsg190
Nsg191
Nsg192
Nsg193
Nsg194
Nsg195
Nsg196
Nsg197
Nsg198
Nsg199
Nsg200
Nsg201
Nsg202
Nsg203
Nsg204
Nsg205
Nsg206
Nsg207
Nsg208
Nsg209
Nsg210
Nsg211
Nsg212
Nsg213
Nsg214
Nsg215
Nsg216
NssI1966
(dp222
g3
Nsg4
Nsg5
Nsg6
Nsg7
Nsg8
Nsg9
Nsg10
Nsg11
Nsg12
Nsg13
Nsg14
Nsg15
Nsg16
Nsg17
Nsg18
Nsg19
Nsg20
Nsg21
Nsg22
Nsg23
Nsg24
Nsg25
Nsg26
Nsg27
Nsg28
Nsg29
Nsg30
Nsg31
Nsg32
Nsg33
Nsg34
Nsg35
Nsg36
Nsg37
Nsg38
Nsg39
Nsg40
Nsg41
Nsg42
Nsg43
Nsg44
Nsg45
Nsg46
Nsg47
Nsg48
Nsg49
Nsg50
Nsg51
Nsg52
Nsg53
Nsg54
Nsg55
Nsg56
Nsg57
Nsg58
Nsg59
Nsg60
Nsg61
Nsg62
Nsg63
Nsg64
Nsg65
Nsg66
Nsg67
Nsg68
Nsg69
Nsg70
Nsg71
Nsg72
Nsg73
Nsg74
Nsg75
Nsg76
Nsg77
Nsg78
Nsg79
Nsg80
Nsg81
Nsg82
Nsg83
Nsg84
Nsg85
Nsg86
Nsg87
Nsg88
Nsg89
Nsg90
Nsg91
Nsg92
Nsg93
Nsg94
Nsg95
Nsg96
Nsg97
Nsg98
Nsg99
Nsg100
Nsg101
Nsg102
Nsg103
Nsg104
Nsg105
Nsg106
Nsg107
Nsg108
Nsg109
Nsg110
Nsg111
Nsg112
Nsg113
Nsg114
Nsg115
Nsg116
Nsg117
Nsg118
Nsg119
Nsg120
Nsg121
Nsg122
Nsg123
Nsg124
Nsg125
Nsg126
Nsg127
Nsg128
Nsg129
Nsg130
Nsg131
Nsg132
Nsg133
Nsg134
Nsg135
Nsg136
Nsg137
Nsg138
Nsg139
Nsg140
Nsg141
Nsg142
Nsg143
Nsg144
Nsg145
Nsg146
Nsg147
Nsg148
Nsg149
Nsg150
Nsg151
Nsg152
Nsg153
Nsg154
Nsg155
Nsg156
Nsg157
Nsg158
Nsg159
Nsg160
Nsg161
Nsg162
Nsg163
Nsg164
Nsg165
Nsg166
Nsg167
Nsg168
Nsg169
Nsg170
Nsg171
Nsg172
Nsg173
Nsg174
Nsg175
Nsg176
Nsg177
Nsg178
Nsg179
Nsg180
Nsg181
Nsg182
Nsg183
Nsg184
Nsg185
Nsg186
Nsg187
Nsg188
Nsg189
Nsg190
Nsg191
Nsg192
Nsg193
Nsg194
Nsg195
Nsg196
Nsg197
Nsg198
Nsg199
Nsg200
Nsg201
Nsg202
Nsg203
Nsg204
Nsg205
Nsg206
Nsg207
Nsg208
Nsg209
Nsg210
Nsg211
Nsg212
Nsg213
Nsg214
Nsg215
Nsg216
NssI1967
(dp223
g3
Nsg4
Nsg5
Nsg6
Nsg7
Nsg8
Nsg9
Nsg10
Nsg11
Nsg12
Nsg13
Nsg14
Nsg15
Nsg16
Nsg17
Nsg18
Nsg19
Nsg20
Nsg21
Nsg22
Nsg23
Nsg24
Nsg25
Nsg26
Nsg27
Nsg28
Nsg29
Nsg30
Nsg31
Nsg32
Nsg33
Nsg34
Nsg35
Nsg36
Nsg37
Nsg38
Nsg39
Nsg40
Nsg41
Nsg42
Nsg43
Nsg44
Nsg45
Nsg46
Nsg47
Nsg48
Nsg49
Nsg50
Nsg51
Nsg52
Nsg53
Nsg54
Nsg55
Nsg56
Nsg57
Nsg58
Nsg59
Nsg60
Nsg61
Nsg62
Nsg63
Nsg64
Nsg65
Nsg66
Nsg67
Nsg68
Nsg69
Nsg70
Nsg71
Nsg72
Nsg73
Nsg74
Nsg75
Nsg76
Nsg77
Nsg78
Nsg79
Nsg80
Nsg81
Nsg82
Nsg83
Nsg84
Nsg85
Nsg86
Nsg87
Nsg88
Nsg89
Nsg90
Nsg91
Nsg92
Nsg93
Nsg94
Nsg95
Nsg96
Nsg97
Nsg98
Nsg99
Nsg100
Nsg101
Nsg102
Nsg103
Nsg104
Nsg105
Nsg106
Nsg107
Nsg108
Nsg109
Nsg110
Nsg111
Nsg112
Nsg113
Nsg114
Nsg115
Nsg116
Nsg117
Nsg118
Nsg119
Nsg120
Nsg121
Nsg122
Nsg123
Nsg124
Nsg125
Nsg126
Nsg127
Nsg128
Nsg129
Nsg130
Nsg131
Nsg132
Nsg133
Nsg134
Nsg135
Nsg136
Nsg137
Nsg138
Nsg139
Nsg140
Nsg141
Nsg142
Nsg143
Nsg144
Nsg145
Nsg146
Nsg147
Nsg148
Nsg149
Nsg150
Nsg151
Nsg152
Nsg153
Nsg154
Nsg155
Nsg156
Nsg157
Nsg158
Nsg159
Nsg160
Nsg161
Nsg162
Nsg163
Nsg164
Nsg165
Nsg166
Nsg167
Nsg168
Nsg169
Nsg170
Nsg171
Nsg172
Nsg173
Nsg174
Nsg175
Nsg176
Nsg177
Nsg178
Nsg179
Nsg180
Nsg181
Nsg182
Nsg183
Nsg184
Nsg185
Nsg186
Nsg187
Nsg188
Nsg189
Nsg190
Nsg191
Nsg192
Nsg193
Nsg194
Nsg195
Nsg196
Nsg197
Nsg198
Nsg199
Nsg200
Nsg201
Nsg202
Nsg203
Nsg204
Nsg205
Nsg206
Nsg207
Nsg208
Nsg209
Nsg210
Nsg211
Nsg212
Nsg213
Nsg214
Nsg215
Nsg216
NssI1968
(dp224
g3
Nsg4
Nsg5
Nsg6
Nsg7
Nsg8
Nsg9
Nsg10
Nsg11
Nsg12
Nsg13
Nsg14
Nsg15
Nsg16
Nsg17
Nsg18
Nsg19
Nsg20
Nsg21
Nsg22
Nsg23
Nsg24
Nsg25
Nsg26
Nsg27
Nsg28
Nsg29
Nsg30
Nsg31
Nsg32
Nsg33
Nsg34
Nsg35
Nsg36
Nsg37
Nsg38
Nsg39
Nsg40
Nsg41
Nsg42
Nsg43
Nsg44
Nsg45
Nsg46
Nsg47
Nsg48
Nsg49
Nsg50
Nsg51
Nsg52
Nsg53
Nsg54
Nsg55
Nsg56
Nsg57
Nsg58
Nsg59
Nsg60
Nsg61
Nsg62
Nsg63
Nsg64
Nsg65
Nsg66
Nsg67
Nsg68
Nsg69
Nsg70
Nsg71
Nsg72
Nsg73
Nsg74
Nsg75
Nsg76
Nsg77
Nsg78
Nsg79
Nsg80
Nsg81
Nsg82
Nsg83
Nsg84
Nsg85
Nsg86
Nsg87
Nsg88
Nsg89
Nsg90
Nsg91
Nsg92
Nsg93
Nsg94
Nsg95
Nsg96
Nsg97
Nsg98
Nsg99
Nsg100
Nsg101
Nsg102
Nsg103
Nsg104
Nsg105
Nsg106
Nsg107
Nsg108
Nsg109
Nsg110
Nsg111
Nsg112
Nsg113
Nsg114
Nsg115
Nsg116
Nsg117
Nsg118
Nsg119
Nsg120
Nsg121
Nsg122
Nsg123
Nsg124
Nsg125
Nsg126
Nsg127
Nsg128
Nsg129
Nsg130
Nsg131
Nsg132
Nsg133
Nsg134
Nsg135
Nsg136
Nsg137
Nsg138
Nsg139
Nsg140
Nsg141
Nsg142
Nsg143
Nsg144
Nsg145
Nsg146
Nsg147
Nsg148
Nsg149
Nsg150
Nsg151
Nsg152
Nsg153
Nsg154
Nsg155
Nsg156
Nsg157
Nsg158
Nsg159
Nsg160
Nsg161
Nsg162
Nsg163
Nsg164
Nsg165
Nsg166
Nsg167
Nsg168
Nsg169
Nsg170
Nsg171
Nsg172
Nsg173
Nsg174
Nsg175
Nsg176
Nsg177
Nsg178
Nsg179
Nsg180
Nsg181
Nsg182
Nsg183
Nsg184
Nsg185
Nsg186
Nsg187
Nsg188
Nsg189
Nsg190
Nsg191
Nsg192
Nsg193
Nsg194
Nsg195
Nsg196
Nsg197
Nsg198
Nsg199
Nsg200
Nsg201
Nsg202
Nsg203
Nsg204
Nsg205
Nsg206
Nsg207
Nsg208
Nsg209
Nsg210
Nsg211
Nsg212
Nsg213
Nsg214
Nsg215
Nsg216
NssI1969
(dp225
g3
Nsg4
Nsg5
Nsg6
Nsg7
Nsg8
Nsg9
Nsg10
Nsg11
Nsg12
Nsg13
Nsg14
Nsg15
Nsg16
Nsg17
Nsg18
Nsg19
Nsg20
Nsg21
Nsg22
Nsg23
Nsg24
Nsg25
Nsg26
Nsg27
Nsg28
Nsg29
Nsg30
Nsg31
Nsg32
Nsg33
Nsg34
Nsg35
Nsg36
Nsg37
Nsg38
Nsg39
Nsg40
Nsg41
Nsg42
Nsg43
Nsg44
Nsg45
Nsg46
Nsg47
Nsg48
Nsg49
Nsg50
Nsg51
Nsg52
Nsg53
Nsg54
Nsg55
Nsg56
Nsg57
Nsg58
Nsg59
Nsg60
Nsg61
Nsg62
Nsg63
Nsg64
Nsg65
Nsg66
Nsg67
Nsg68
Nsg69
Nsg70
Nsg71
Nsg72
Nsg73
Nsg74
Nsg75
Nsg76
Nsg77
Nsg78
Nsg79
Nsg80
Nsg81
Nsg82
Nsg83
Nsg84
Nsg85
Nsg86
Nsg87
Nsg88
Nsg89
Nsg90
Nsg91
Nsg92
Nsg93
Nsg94
Nsg95
Nsg96
Nsg97
Nsg98
Nsg99
Nsg100
Nsg101
Nsg102
Nsg103
Nsg104
Nsg105
Nsg106
Nsg107
Nsg108
Nsg109
Nsg110
Nsg111
Nsg112
Nsg113
Nsg114
Nsg115
Nsg116
Nsg117
Nsg118
Nsg119
Nsg120
Nsg121
Nsg122
Nsg123
Nsg124
Nsg125
Nsg126
Nsg127
Nsg128
Nsg129
Nsg130
Nsg131
Nsg132
Nsg133
Nsg134
Nsg135
Nsg136
Nsg137
Nsg138
Nsg139
Nsg140
Nsg141
Nsg142
Nsg143
Nsg144
Nsg145
Nsg146
Nsg147
Nsg148
Nsg149
Nsg150
Nsg151
Nsg152
Nsg153
Nsg154
Nsg155
Nsg156
Nsg157
Nsg158
Nsg159
Nsg160
Nsg161
Nsg162
Nsg163
Nsg164
Nsg165
Nsg166
Nsg167
Nsg168
Nsg169
Nsg170
Nsg171
Nsg172
Nsg173
Nsg174
Nsg175
Nsg176
Nsg177
Nsg178
Nsg179
Nsg180
Nsg181
Nsg182
Nsg183
Nsg184
Nsg185
Nsg186
Nsg187
Nsg188
Nsg189
Nsg190
Nsg191
Nsg192
Nsg193
Nsg194
Nsg195
Nsg196
Nsg197
Nsg198
Nsg199
Nsg200
Nsg201
Nsg202
Nsg203
Nsg204
Nsg205
Nsg206
Nsg207
Nsg208
Nsg209
Nsg210
Nsg211
Nsg212
Nsg213
Nsg214
Nsg215
Nsg216
NssI1970
(dp226
g3
Nsg4
Nsg5
Nsg6
Nsg7
Nsg8
Nsg9
Nsg10
Nsg11
Nsg12
Nsg13
Nsg14
Nsg15
Nsg16
Nsg17
Nsg18
Nsg19
Nsg20
Nsg21
Nsg22
Nsg23
Nsg24
Nsg25
Nsg26
Nsg27
Nsg28
Nsg29
Nsg30
Nsg31
Nsg32
Nsg33
Nsg34
Nsg35
Nsg36
Nsg37
Nsg38
Nsg39
Nsg40
Nsg41
Nsg42
Nsg43
Nsg44
Nsg45
Nsg46
Nsg47
Nsg48
Nsg49
Nsg50
Nsg51
Nsg52
Nsg53
Nsg54
Nsg55
Nsg56
Nsg57
Nsg58
Nsg59
Nsg60
Nsg61
Nsg62
Nsg63
Nsg64
Nsg65
Nsg66
Nsg67
Nsg68
Nsg69
Nsg70
Nsg71
Nsg72
Nsg73
Nsg74
Nsg75
Nsg76
Nsg77
Nsg78
Nsg79
Nsg80
Nsg81
Nsg82
Nsg83
Nsg84
Nsg85
Nsg86
Nsg87
Nsg88
Nsg89
Nsg90
Nsg91
Nsg92
Nsg93
Nsg94
Nsg95
Nsg96
Nsg97
Nsg98
Nsg99
Nsg100
Nsg101
Nsg102
Nsg103
Nsg104
Nsg105
Nsg106
Nsg107
Nsg108
Nsg109
Nsg110
Nsg111
Nsg112
Nsg113
Nsg114
Nsg115
Nsg116
Nsg117
Nsg118
Nsg119
Nsg120
Nsg121
Nsg122
Nsg123
Nsg124
Nsg125
Nsg126
Nsg127
Nsg128
Nsg129
Nsg130
Nsg131
Nsg132
Nsg133
Nsg134
Nsg135
Nsg136
Nsg137
Nsg138
Nsg139
Nsg140
Nsg141
Nsg142
Nsg143
Nsg144
Nsg145
Nsg146
Nsg147
Nsg148
Nsg149
Nsg150
Nsg151
Nsg152
Nsg153
Nsg154
Nsg155
Nsg156
Nsg157
Nsg158
Nsg159
Nsg160
Nsg161
Nsg162
Nsg163
Nsg164
Nsg165
Nsg166
Nsg167
Nsg168
Nsg169
Nsg170
Nsg171
Nsg172
Nsg173
Nsg174
Nsg175
Nsg176
Nsg177
Nsg178
Nsg179
Nsg180
Nsg181
Nsg182
Nsg183
Nsg184
Nsg185
Nsg186
Nsg187
Nsg188
Nsg189
Nsg190
Nsg191
Nsg192
Nsg193
Nsg194
Nsg195
Nsg196
Nsg197
Nsg198
Nsg199
Nsg200
Nsg201
Nsg202
Nsg203
Nsg204
Nsg205
Nsg206
Nsg207
Nsg208
Nsg209
Nsg210
Nsg211
Nsg212
Nsg213
Nsg214
Nsg215
Nsg216
NssI1971
(dp227
g3
Nsg4
Nsg5
Nsg6
Nsg7
Nsg8
Nsg9
Nsg10
Nsg11
Nsg12
Nsg13
Nsg14
Nsg15
Nsg16
Nsg17
Nsg18
Nsg19
Nsg20
Nsg21
Nsg22
Nsg23
Nsg24
Nsg25
Nsg26
Nsg27
Nsg28
Nsg29
Nsg30
Nsg31
Nsg32
Nsg33
Nsg34
Nsg35
Nsg36
Nsg37
Nsg38
Nsg39
Nsg40
Nsg41
Nsg42
Nsg43
Nsg44
Nsg45
Nsg46
Nsg47
Nsg48
Nsg49
Nsg50
Nsg51
Nsg52
Nsg53
Nsg54
Nsg55
Nsg56
Nsg57
Nsg58
Nsg59
Nsg60
Nsg61
Nsg62
Nsg63
Nsg64
Nsg65
Nsg66
Nsg67
Nsg68
Nsg69
Nsg70
Nsg71
Nsg72
Nsg73
Nsg74
Nsg75
Nsg76
Nsg77
Nsg78
Nsg79
Nsg80
Nsg81
Nsg82
Nsg83
Nsg84
Nsg85
Nsg86
Nsg87
Nsg88
Nsg89
Nsg90
Nsg91
Nsg92
Nsg93
Nsg94
Nsg95
Nsg96
Nsg97
Nsg98
Nsg99
Nsg100
Nsg101
Nsg102
Nsg103
Nsg104
Nsg105
Nsg106
Nsg107
Nsg108
Nsg109
Nsg110
Nsg111
Nsg112
Nsg113
Nsg114
Nsg115
Nsg116
Nsg117
Nsg118
Nsg119
Nsg120
Nsg121
Nsg122
Nsg123
Nsg124
Nsg125
Nsg126
Nsg127
Nsg128
Nsg129
Nsg130
Nsg131
Nsg132
Nsg133
Nsg134
Nsg135
Nsg136
Nsg137
Nsg138
Nsg139
Nsg140
Nsg141
Nsg142
Nsg143
Nsg144
Nsg145
Nsg146
Nsg147
Nsg148
Nsg149
Nsg150
Nsg151
Nsg152
Nsg153
Nsg154
Nsg155
Nsg156
Nsg157
Nsg158
Nsg159
Nsg160
Nsg161
Nsg162
Nsg163
Nsg164
Nsg165
Nsg166
Nsg167
Nsg168
Nsg169
Nsg170
Nsg171
Nsg172
Nsg173
Nsg174
Nsg175
Nsg176
Nsg177
Nsg178
Nsg179
Nsg180
Nsg181
Nsg182
Nsg183
Nsg184
Nsg185
Nsg186
Nsg187
Nsg188
Nsg189
Nsg190
Nsg191
Nsg192
Nsg193
Nsg194
Nsg195
Nsg196
Nsg197
Nsg198
Nsg199
Nsg200
Nsg201
Nsg202
Nsg203
Nsg204
Nsg205
Nsg206
Nsg207
Nsg208
Nsg209
Nsg210
Nsg211
Nsg212
Nsg213
Nsg214
Nsg215
Nsg216
NssI1972
(dp228
g3
Nsg4
Nsg5
Nsg6
Nsg7
Nsg8
Nsg9
Nsg10
Nsg11
Nsg12
Nsg13
Nsg14
Nsg15
Nsg16
Nsg17
Nsg18
Nsg19
Nsg20
Nsg21
Nsg22
Nsg23
Nsg24
Nsg25
Nsg26
Nsg27
Nsg28
Nsg29
Nsg30
Nsg31
Nsg32
Nsg33
Nsg34
Nsg35
Nsg36
Nsg37
Nsg38
Nsg39
Nsg40
Nsg41
Nsg42
Nsg43
Nsg44
Nsg45
Nsg46
Nsg47
Nsg48
Nsg49
Nsg50
Nsg51
Nsg52
Nsg53
Nsg54
Nsg55
Nsg56
Nsg57
Nsg58
Nsg59
Nsg60
Nsg61
Nsg62
Nsg63
Nsg64
Nsg65
Nsg66
Nsg67
Nsg68
Nsg69
Nsg70
Nsg71
Nsg72
Nsg73
Nsg74
Nsg75
Nsg76
Nsg77
Nsg78
Nsg79
Nsg80
Nsg81
Nsg82
Nsg83
Nsg84
Nsg85
Nsg86
Nsg87
Nsg88
Nsg89
Nsg90
Nsg91
Nsg92
Nsg93
Nsg94
Nsg95
Nsg96
Nsg97
Nsg98
Nsg99
Nsg100
Nsg101
Nsg102
Nsg103
Nsg104
Nsg105
Nsg106
Nsg107
Nsg108
Nsg109
Nsg110
Nsg111
Nsg112
Nsg113
Nsg114
Nsg115
Nsg116
Nsg117
Nsg118
Nsg119
Nsg120
Nsg121
Nsg122
Nsg123
Nsg124
Nsg125
Nsg126
Nsg127
Nsg128
Nsg129
Nsg130
Nsg131
Nsg132
Nsg133
Nsg134
Nsg135
Nsg136
Nsg137
Nsg138
Nsg139
Nsg140
Nsg141
Nsg142
Nsg143
Nsg144
Nsg145
Nsg146
Nsg147
Nsg148
Nsg149
Nsg150
Nsg151
Nsg152
Nsg153
Nsg154
Nsg155
Nsg156
Nsg157
Nsg158
Nsg159
Nsg160
Nsg161
Nsg162
Nsg163
Nsg164
Nsg165
Nsg166
Nsg167
Nsg168
Nsg169
Nsg170
Nsg171
Nsg172
Nsg173
Nsg174
Nsg175
Nsg176
Nsg177
Nsg178
Nsg179
Nsg180
Nsg181
Nsg182
Nsg183
Nsg184
Nsg185
Nsg186
Nsg187
Nsg188
Nsg189
Nsg190
Nsg191
Nsg192
Nsg193
Nsg194
Nsg195
Nsg196
Nsg197
Nsg198
Nsg199
Nsg200
Nsg201
Nsg202
Nsg203
Nsg204
Nsg205
Nsg206
Nsg207
Nsg208
Nsg209
Nsg210
Nsg211
Nsg212
Nsg213
Nsg214
Nsg215
Nsg216
NssI1973
(dp229
g3
Nsg4
Nsg5
Nsg6
Nsg7
Nsg8
Nsg9
Nsg10
Nsg11
Nsg12
Nsg13
Nsg14
Nsg15
Nsg16
Nsg17
Nsg18
Nsg19
Nsg20
Nsg21
Nsg22
Nsg23
Nsg24
Nsg25
Nsg26
Nsg27
Nsg28
Nsg29
Nsg30
Nsg31
Nsg32
Nsg33
Nsg34
Nsg35
Nsg36
Nsg37
Nsg38
Nsg39
Nsg40
Nsg41
Nsg42
Nsg43
Nsg44
Nsg45
Nsg46
Nsg47
Nsg48
Nsg49
Nsg50
Nsg51
Nsg52
Nsg53
Nsg54
Nsg55
Nsg56
Nsg57
Nsg58
Nsg59
Nsg60
Nsg61
Nsg62
Nsg63
Nsg64
Nsg65
Nsg66
Nsg67
Nsg68
Nsg69
Nsg70
Nsg71
Nsg72
Nsg73
Nsg74
Nsg75
Nsg76
Nsg77
Nsg78
Nsg79
Nsg80
Nsg81
Nsg82
Nsg83
Nsg84
Nsg85
Nsg86
Nsg87
Nsg88
Nsg89
Nsg90
Nsg91
Nsg92
Nsg93
Nsg94
Nsg95
Nsg96
Nsg97
Nsg98
Nsg99
Nsg100
Nsg101
Nsg102
Nsg103
Nsg104
Nsg105
Nsg106
Nsg107
Nsg108
Nsg109
Nsg110
Nsg111
Nsg112
Nsg113
Nsg114
Nsg115
Nsg116
Nsg117
Nsg118
Nsg119
Nsg120
Nsg121
Nsg122
Nsg123
Nsg124
Nsg125
Nsg126
Nsg127
Nsg128
Nsg129
Nsg130
Nsg131
Nsg132
Nsg133
Nsg134
Nsg135
Nsg136
Nsg137
Nsg138
Nsg139
Nsg140
Nsg141
Nsg142
Nsg143
Nsg144
Nsg145
Nsg146
Nsg147
Nsg148
Nsg149
Nsg150
Nsg151
Nsg152
Nsg153
Nsg154
Nsg155
Nsg156
Nsg157
Nsg158
Nsg159
Nsg160
Nsg161
Nsg162
Nsg163
Nsg164
Nsg165
Nsg166
Nsg167
Nsg168
Nsg169
Nsg170
Nsg171
Nsg172
Nsg173
Nsg174
Nsg175
Nsg176
Nsg177
Nsg178
Nsg179
Nsg180
Nsg181
Nsg182
Nsg183
Nsg184
Nsg185
Nsg186
Nsg187
Nsg188
Nsg189
Nsg190
Nsg191
Nsg192
Nsg193
Nsg194
Nsg195
Nsg196
Nsg197
Nsg198
Nsg199
Nsg200
Nsg201
Nsg202
Nsg203
Nsg204
Nsg205
Nsg206
Nsg207
Nsg208
Nsg209
Nsg210
Nsg211
Nsg212
Nsg213
Nsg214
Nsg215
Nsg216
NssI1974
(dp230
g3
Nsg4
Nsg5
Nsg6
Nsg7
Nsg8
Nsg9
Nsg10
Nsg11
Nsg12
Nsg13
Nsg14
Nsg15
Nsg16
Nsg17
Nsg18
Nsg19
Nsg20
Nsg21
Nsg22
Nsg23
Nsg24
Nsg25
Nsg26
Nsg27
Nsg28
Nsg29
Nsg30
Nsg31
Nsg32
Nsg33
Nsg34
Nsg35
Nsg36
Nsg37
Nsg38
Nsg39
Nsg40
Nsg41
Nsg42
Nsg43
Nsg44
Nsg45
Nsg46
Nsg47
Nsg48
Nsg49
Nsg50
Nsg51
Nsg52
Nsg53
Nsg54
Nsg55
Nsg56
Nsg57
Nsg58
Nsg59
Nsg60
Nsg61
Nsg62
Nsg63
Nsg64
Nsg65
Nsg66
Nsg67
Nsg68
Nsg69
Nsg70
Nsg71
Nsg72
Nsg73
Nsg74
Nsg75
Nsg76
Nsg77
Nsg78
Nsg79
Nsg80
Nsg81
Nsg82
Nsg83
Nsg84
Nsg85
Nsg86
Nsg87
Nsg88
Nsg89
Nsg90
Nsg91
Nsg92
Nsg93
Nsg94
Nsg95
Nsg96
Nsg97
Nsg98
Nsg99
Nsg100
Nsg101
Nsg102
Nsg103
Nsg104
Nsg105
Nsg106
Nsg107
Nsg108
Nsg109
Nsg110
Nsg111
Nsg112
Nsg113
Nsg114
Nsg115
Nsg116
Nsg117
Nsg118
Nsg119
Nsg120
Nsg121
Nsg122
Nsg123
Nsg124
Nsg125
Nsg126
Nsg127
Nsg128
Nsg129
Nsg130
Nsg131
Nsg132
Nsg133
Nsg134
Nsg135
Nsg136
Nsg137
Nsg138
Nsg139
Nsg140
Nsg141
Nsg142
Nsg143
Nsg144
Nsg145
Nsg146
Nsg147
Nsg148
Nsg149
Nsg150
Nsg151
Nsg152
Nsg153
Nsg154
Nsg155
Nsg156
Nsg157
Nsg158
Nsg159
Nsg160
Nsg161
Nsg162
Nsg163
Nsg164
Nsg165
Nsg166
Nsg167
Nsg168
Nsg169
Nsg170
Nsg171
Nsg172
Nsg173
Nsg174
Nsg175
Nsg176
Nsg177
Nsg178
Nsg179
Nsg180
Nsg181
Nsg182
Nsg183
Nsg184
Nsg185
Nsg186
Nsg187
Nsg188
Nsg189
Nsg190
Nsg191
Nsg192
Nsg193
Nsg194
Nsg195
Nsg196
Nsg197
Nsg198
Nsg199
Nsg200
Nsg201
Nsg202
Nsg203
Nsg204
Nsg205
Nsg206
Nsg207
Nsg208
Nsg209
Nsg210
Nsg211
Nsg212
Nsg213
Nsg214
Nsg215
Nsg216
NssI1975
(dp231
g3
Nsg4
Nsg5
Nsg6
Nsg7
Nsg8
Nsg9
Nsg10
Nsg11
Nsg12
Nsg13
Nsg14
Nsg15
Nsg16
Nsg17
Nsg18
Nsg19
Nsg20
Nsg21
Nsg22
Nsg23
Nsg24
Nsg25
Nsg26
Nsg27
Nsg28
Nsg29
Nsg30
Nsg31
Nsg32
Nsg33
Nsg34
Nsg35
Nsg36
Nsg37
Nsg38
Nsg39
Nsg40
Nsg41
Nsg42
Nsg43
Nsg44
Nsg45
Nsg46
Nsg47
Nsg48
Nsg49
Nsg50
Nsg51
Nsg52
Nsg53
Nsg54
Nsg55
Nsg56
Nsg57
Nsg58
Nsg59
Nsg60
Nsg61
Nsg62
Nsg63
Nsg64
Nsg65
Nsg66
Nsg67
Nsg68
Nsg69
Nsg70
Nsg71
Nsg72
Nsg73
Nsg74
Nsg75
Nsg76
Nsg77
Nsg78
Nsg79
Nsg80
Nsg81
Nsg82
Nsg83
Nsg84
Nsg85
Nsg86
Nsg87
Nsg88
Nsg89
Nsg90
Nsg91
Nsg92
Nsg93
Nsg94
Nsg95
Nsg96
Nsg97
Nsg98
Nsg99
Nsg100
Nsg101
Nsg102
Nsg103
Nsg104
Nsg105
Nsg106
Nsg107
Nsg108
Nsg109
Nsg110
Nsg111
Nsg112
Nsg113
Nsg114
Nsg115
Nsg116
Nsg117
Nsg118
Nsg119
Nsg120
Nsg121
Nsg122
Nsg123
Nsg124
Nsg125
Nsg126
Nsg127
Nsg128
Nsg129
Nsg130
Nsg131
Nsg132
Nsg133
Nsg134
Nsg135
Nsg136
Nsg137
Nsg138
Nsg139
Nsg140
Nsg141
Nsg142
Nsg143
Nsg144
Nsg145
Nsg146
Nsg147
Nsg148
Nsg149
Nsg150
Nsg151
Nsg152
Nsg153
Nsg154
Nsg155
Nsg156
Nsg157
Nsg158
Nsg159
Nsg160
Nsg161
Nsg162
Nsg163
Nsg164
Nsg165
Nsg166
Nsg167
Nsg168
Nsg169
Nsg170
Nsg171
Nsg172
Nsg173
Nsg174
Nsg175
Nsg176
Nsg177
Nsg178
Nsg179
Nsg180
Nsg181
Nsg182
Nsg183
Nsg184
Nsg185
Nsg186
Nsg187
Nsg188
Nsg189
Nsg190
Nsg191
Nsg192
Nsg193
Nsg194
Nsg195
Nsg196
Nsg197
Nsg198
Nsg199
Nsg200
Nsg201
Nsg202
Nsg203
Nsg204
Nsg205
Nsg206
Nsg207
Nsg208
Nsg209
Nsg210
Nsg211
Nsg212
Nsg213
Nsg214
Nsg215
Nsg216
NssI1976
(dp232
g3
Nsg4
Nsg5
Nsg6
Nsg7
Nsg8
Nsg9
Nsg10
Nsg11
Nsg12
Nsg13
Nsg14
Nsg15
Nsg16
Nsg17
Nsg18
Nsg19
Nsg20
Nsg21
Nsg22
Nsg23
Nsg24
Nsg25
Nsg26
Nsg27
Nsg28
Nsg29
Nsg30
Nsg31
Nsg32
Nsg33
Nsg34
Nsg35
Nsg36
Nsg37
Nsg38
Nsg39
Nsg40
Nsg41
Nsg42
Nsg43
Nsg44
Nsg45
Nsg46
Nsg47
Nsg48
Nsg49
Nsg50
Nsg51
Nsg52
Nsg53
Nsg54
Nsg55
Nsg56
Nsg57
Nsg58
Nsg59
Nsg60
Nsg61
Nsg62
Nsg63
Nsg64
Nsg65
Nsg66
Nsg67
Nsg68
Nsg69
Nsg70
Nsg71
Nsg72
Nsg73
Nsg74
Nsg75
Nsg76
Nsg77
Nsg78
Nsg79
Nsg80
Nsg81
Nsg82
Nsg83
Nsg84
Nsg85
Nsg86
Nsg87
Nsg88
Nsg89
Nsg90
Nsg91
Nsg92
Nsg93
Nsg94
Nsg95
Nsg96
Nsg97
Nsg98
Nsg99
Nsg100
Nsg101
Nsg102
Nsg103
Nsg104
Nsg105
Nsg106
Nsg107
Nsg108
Nsg109
Nsg110
Nsg111
Nsg112
Nsg113
Nsg114
Nsg115
Nsg116
Nsg117
Nsg118
Nsg119
Nsg120
Nsg121
Nsg122
Nsg123
Nsg124
Nsg125
Nsg126
Nsg127
Nsg128
Nsg129
Nsg130
Nsg131
Nsg132
Nsg133
Nsg134
Nsg135
Nsg136
Nsg137
Nsg138
Nsg139
Nsg140
Nsg141
Nsg142
Nsg143
Nsg144
Nsg145
Nsg146
Nsg147
Nsg148
Nsg149
Nsg150
Nsg151
Nsg152
Nsg153
Nsg154
Nsg155
Nsg156
Nsg157
Nsg158
Nsg159
Nsg160
Nsg161
Nsg162
Nsg163
Nsg164
Nsg165
Nsg166
Nsg167
Nsg168
Nsg169
Nsg170
Nsg171
Nsg172
Nsg173
Nsg174
Nsg175
Nsg176
Nsg177
Nsg178
Nsg179
Nsg180
Nsg181
Nsg182
Nsg183
Nsg184
Nsg185
Nsg186
Nsg187
Nsg188
Nsg189
Nsg190
Nsg191
Nsg192
Nsg193
Nsg194
Nsg195
Nsg196
Nsg197
Nsg198
Nsg199
Nsg200
Nsg201
Nsg202
Nsg203
Nsg204
Nsg205
Nsg206
Nsg207
Nsg208
Nsg209
Nsg210
Nsg211
Nsg212
Nsg213
Nsg214
Nsg215
Nsg216
NssI1977
(dp233
g3
Nsg4
Nsg5
Nsg6
Nsg7
Nsg8
Nsg9
Nsg10
Nsg11
Nsg12
Nsg13
Nsg14
Nsg15
Nsg16
Nsg17
Nsg18
Nsg19
Nsg20
Nsg21
Nsg22
Nsg23
Nsg24
Nsg25
Nsg26
Nsg27
Nsg28
Nsg29
Nsg30
Nsg31
Nsg32
Nsg33
Nsg34
Nsg35
Nsg36
Nsg37
Nsg38
Nsg39
Nsg40
Nsg41
Nsg42
Nsg43
Nsg44
Nsg45
Nsg46
Nsg47
Nsg48
Nsg49
Nsg50
Nsg51
Nsg52
Nsg53
Nsg54
Nsg55
Nsg56
Nsg57
Nsg58
Nsg59
Nsg60
Nsg61
Nsg62
Nsg63
Nsg64
Nsg65
Nsg66
Nsg67
Nsg68
Nsg69
Nsg70
Nsg71
Nsg72
Nsg73
Nsg74
Nsg75
Nsg76
Nsg77
Nsg78
Nsg79
Nsg80
Nsg81
Nsg82
Nsg83
Nsg84
Nsg85
Nsg86
Nsg87
Nsg88
Nsg89
Nsg90
Nsg91
Nsg92
Nsg93
Nsg94
Nsg95
Nsg96
Nsg97
Nsg98
Nsg99
Nsg100
Nsg101
Nsg102
Nsg103
Nsg104
Nsg105
Nsg106
Nsg107
Nsg108
Nsg109
Nsg110
Nsg111
Nsg112
Nsg113
Nsg114
Nsg115
Nsg116
Nsg117
Nsg118
Nsg119
Nsg120
Nsg121
Nsg122
Nsg123
Nsg124
Nsg125
Nsg126
Nsg127
Nsg128
Nsg129
Nsg130
Nsg131
Nsg132
Nsg133
Nsg134
Nsg135
Nsg136
Nsg137
Nsg138
Nsg139
Nsg140
Nsg141
Nsg142
Nsg143
Nsg144
Nsg145
Nsg146
Nsg147
Nsg148
Nsg149
Nsg150
Nsg151
Nsg152
Nsg153
Nsg154
Nsg155
Nsg156
Nsg157
Nsg158
Nsg159
Nsg160
Nsg161
Nsg162
Nsg163
Nsg164
Nsg165
Nsg166
Nsg167
Nsg168
Nsg169
Nsg170
Nsg171
Nsg172
Nsg173
Nsg174
Nsg175
Nsg176
Nsg177
Nsg178
Nsg179
Nsg180
Nsg181
Nsg182
Nsg183
Nsg184
Nsg185
Nsg186
Nsg187
Nsg188
Nsg189
Nsg190
Nsg191
Nsg192
Nsg193
Nsg194
Nsg195
Nsg196
Nsg197
Nsg198
Nsg199
Nsg200
Nsg201
Nsg202
Nsg203
Nsg204
Nsg205
Nsg206
Nsg207
Nsg208
Nsg209
Nsg210
Nsg211
Nsg212
Nsg213
Nsg214
Nsg215
Nsg216
NssI1978
(dp234
g3
Nsg4
Nsg5
Nsg6
Nsg7
Nsg8
Nsg9
Nsg10
Nsg11
Nsg12
Nsg13
Nsg14
Nsg15
Nsg16
Nsg17
Nsg18
Nsg19
Nsg20
Nsg21
Nsg22
Nsg23
Nsg24
Nsg25
Nsg26
Nsg27
Nsg28
Nsg29
Nsg30
Nsg31
Nsg32
Nsg33
Nsg34
Nsg35
Nsg36
Nsg37
Nsg38
Nsg39
Nsg40
Nsg41
Nsg42
Nsg43
Nsg44
Nsg45
Nsg46
Nsg47
Nsg48
Nsg49
Nsg50
Nsg51
Nsg52
Nsg53
Nsg54
Nsg55
Nsg56
Nsg57
Nsg58
Nsg59
Nsg60
Nsg61
Nsg62
Nsg63
Nsg64
Nsg65
Nsg66
Nsg67
Nsg68
Nsg69
Nsg70
Nsg71
Nsg72
Nsg73
Nsg74
Nsg75
Nsg76
Nsg77
Nsg78
Nsg79
Nsg80
Nsg81
Nsg82
Nsg83
Nsg84
Nsg85
Nsg86
Nsg87
Nsg88
Nsg89
Nsg90
Nsg91
Nsg92
Nsg93
Nsg94
Nsg95
Nsg96
Nsg97
Nsg98
Nsg99
Nsg100
Nsg101
Nsg102
Nsg103
Nsg104
Nsg105
Nsg106
Nsg107
Nsg108
Nsg109
Nsg110
Nsg111
Nsg112
Nsg113
Nsg114
Nsg115
Nsg116
Nsg117
Nsg118
Nsg119
Nsg120
Nsg121
Nsg122
Nsg123
Nsg124
Nsg125
Nsg126
Nsg127
Nsg128
Nsg129
Nsg130
Nsg131
Nsg132
Nsg133
Nsg134
Nsg135
Nsg136
Nsg137
Nsg138
Nsg139
Nsg140
Nsg141
Nsg142
Nsg143
Nsg144
Nsg145
Nsg146
Nsg147
Nsg148
Nsg149
Nsg150
Nsg151
Nsg152
Nsg153
Nsg154
Nsg155
Nsg156
Nsg157
Nsg158
Nsg159
Nsg160
Nsg161
Nsg162
Nsg163
Nsg164
Nsg165
Nsg166
Nsg167
Nsg168
Nsg169
Nsg170
Nsg171
Nsg172
Nsg173
Nsg174
Nsg175
Nsg176
Nsg177
Nsg178
Nsg179
Nsg180
Nsg181
Nsg182
Nsg183
Nsg184
Nsg185
Nsg186
Nsg187
Nsg188
Nsg189
Nsg190
Nsg191
Nsg192
Nsg193
Nsg194
Nsg195
Nsg196
Nsg197
Nsg198
Nsg199
Nsg200
Nsg201
Nsg202
Nsg203
Nsg204
Nsg205
Nsg206
Nsg207
Nsg208
Nsg209
Nsg210
Nsg211
Nsg212
Nsg213
Nsg214
Nsg215
Nsg216
NssI1979
(dp235
g3
Nsg4
Nsg5
Nsg6
Nsg7
Nsg8
Nsg9
Nsg10
Nsg11
Nsg12
Nsg13
Nsg14
Nsg15
Nsg16
Nsg17
Nsg18
Nsg19
Nsg20
Nsg21
Nsg22
Nsg23
Nsg24
Nsg25
Nsg26
Nsg27
Nsg28
Nsg29
Nsg30
Nsg31
Nsg32
Nsg33
Nsg34
Nsg35
Nsg36
Nsg37
Nsg38
Nsg39
Nsg40
Nsg41
Nsg42
Nsg43
Nsg44
Nsg45
Nsg46
Nsg47
Nsg48
Nsg49
Nsg50
Nsg51
Nsg52
Nsg53
Nsg54
Nsg55
Nsg56
Nsg57
Nsg58
Nsg59
Nsg60
Nsg61
Nsg62
Nsg63
Nsg64
Nsg65
Nsg66
Nsg67
Nsg68
Nsg69
Nsg70
Nsg71
Nsg72
Nsg73
Nsg74
Nsg75
Nsg76
Nsg77
Nsg78
Nsg79
Nsg80
Nsg81
Nsg82
Nsg83
Nsg84
Nsg85
Nsg86
Nsg87
Nsg88
Nsg89
Nsg90
Nsg91
Nsg92
Nsg93
Nsg94
Nsg95
Nsg96
Nsg97
Nsg98
Nsg99
Nsg100
Nsg101
Nsg102
Nsg103
Nsg104
Nsg105
Nsg106
Nsg107
Nsg108
Nsg109
Nsg110
Nsg111
Nsg112
Nsg113
Nsg114
Nsg115
Nsg116
Nsg117
Nsg118
Nsg119
Nsg120
Nsg121
Nsg122
Nsg123
Nsg124
Nsg125
Nsg126
Nsg127
Nsg128
Nsg129
Nsg130
Nsg131
Nsg132
Nsg133
Nsg134
Nsg135
Nsg136
Nsg137
Nsg138
Nsg139
Nsg140
Nsg141
Nsg142
Nsg143
Nsg144
Nsg145
Nsg146
Nsg147
Nsg148
Nsg149
Nsg150
Nsg151
Nsg152
Nsg153
Nsg154
Nsg155
Nsg156
Nsg157
Nsg158
Nsg159
Nsg160
Nsg161
Nsg162
Nsg163
Nsg164
Nsg165
Nsg166
Nsg167
Nsg168
Nsg169
Nsg170
Nsg171
Nsg172
Nsg173
Nsg174
Nsg175
Nsg176
Nsg177
Nsg178
Nsg179
Nsg180
Nsg181
Nsg182
Nsg183
Nsg184
Nsg185
Nsg186
Nsg187
Nsg188
Nsg189
Nsg190
Nsg191
Nsg192
Nsg193
Nsg194
Nsg195
Nsg196
Nsg197
Nsg198
Nsg199
Nsg200
Nsg201
Nsg202
Nsg203
Nsg204
Nsg205
Nsg206
Nsg207
Nsg208
Nsg209
Nsg210
Nsg211
Nsg212
Nsg213
Nsg214
Nsg215
Nsg216
NssI1980
(dp236
g3
F147489000000
sg4
Nsg5
Nsg6
Nsg7
Nsg8
Nsg9
F49970677169
sg10
Nsg11
Nsg12
F420421481.39999998
sg13
Nsg14
F4174767440
sg15
F946878467.89999998
sg16
F1617162656
sg17
F2967386174
sg18
F21727985919
sg19
F482565000000
sg20
Nsg21
Nsg22
Nsg23
Nsg24
F9073330918
sg25
Nsg26
F7234879071
sg27
Nsg28
F2556145082
sg29
F138920027
sg30
Nsg31
F72162973.459999993
sg32
Nsg33
Nsg34
F24097122912
sg35
Nsg36
Nsg37
Nsg38
F540472656.5
sg39
Nsg40
F15500822079
sg41
F1789693582
sg42
Nsg43
Nsg44
Nsg45
Nsg46
Nsg47
F7269169136
sg48
F208863000000
sg49
Nsg50
F500349238.39999998
sg51
F8663946133
sg52
Nsg53
F56483892439
sg54
Nsg55
Nsg56
Nsg57
Nsg58
Nsg59
F53681888468
sg60
Nsg61
Nsg62
F286141000000
sg63
F8633778733
sg64
Nsg65
Nsg66
Nsg67
F55053565029
sg68
Nsg69
Nsg70
F75596362.709999993
sg71
F20156475118
sg72
F6079430123
sg73
Nsg74
Nsg75
Nsg76
F5511614067
sg77
Nsg78
F607406525.29999995
sg79
Nsg80
Nsg81
Nsg82
F5221131613
sg83
Nsg84
F656076462.20000005
sg85
F87140340.549999997
sg86
F18917074642
sg87
Nsg88
Nsg89
F476224360.80000001
sg90
F839829826.79999995
sg91
Nsg92
Nsg93
Nsg94
Nsg95
Nsg96
Nsg97
F1755900000000
sg98
Nsg99
Nsg100
F34216676516
sg101
F34724240568
sg102
F73876427.079999998
sg103
F1252394668
sg104
F470685053.39999998
sg105
Nsg106
F11813509864
sg107
F41775939116
sg108
Nsg109
Nsg110
Nsg111
Nsg112
F32259178781
sg113
F1309928645
sg114
Nsg115
F210716000000
sg116
Nsg117
Nsg118
F1670036747
sg119
F2968898749
sg120
F2622596864
sg121
Nsg122
Nsg123
F12984354661
sg124
Nsg125
Nsg126
Nsg127
Nsg128
F73956549006
sg129
F9815472390
sg130
Nsg131
Nsg132
F39382949.869999997
sg133
Nsg134
Nsg135
Nsg136
F51251613884
sg137
Nsg138
Nsg139
F166836139.90000001
sg140
Nsg141
Nsg142
F26147395146
sg143
F26431633730
sg144
Nsg145
F31129346745
sg146
F12046859955
sg147
Nsg148
Nsg149
Nsg150
F27991116082
sg151
Nsg152
F90324118.959999993
sg153
Nsg154
Nsg155
Nsg156
Nsg157
Nsg158
F42561817540
sg159
F168621000000
sg160
Nsg161
Nsg162
Nsg163
F1289255024
sg164
Nsg165
F149621000000
sg166
F27830388866
sg167
F863879983.10000002
sg168
F498691809.60000002
sg169
F819360394.20000005
sg170
F3303292071
sg171
F272008000000
sg172
Nsg173
Nsg174
F8717642654
sg175
F2329642534
sg176
F5801248031
sg177
F917633447.29999995
sg178
F75739607876
sg179
Nsg180
F474496537.69999999
sg181
Nsg182
Nsg183
F49061078530
sg184
F9947574808
sg185
F31850483085
sg186
F1115758872
sg187
Nsg188
F2175999384
sg189
F1668718526
sg190
F709410786.10000002
sg191
F3847286725
sg192
Nsg193
F445540000000
sg194
Nsg195
Nsg196
Nsg197
Nsg198
Nsg199
Nsg200
Nsg201
Nsg202
F2625574171
sg203
F3952941682
sg204
Nsg205
Nsg206
Nsg207
Nsg208
Nsg209
F576860685.89999998
sg210
F261699000000
sg211
F126461837.2
sg212
Nsg213
F43398711940
sg214
F3192520075
sg215
Nsg216
NssI1981
(dp237
g3
F162402000000
sg4
Nsg5
Nsg6
Nsg7
Nsg8
Nsg9
F54896265510
sg10
F7449362366
sg11
Nsg12
F532475279
sg13
Nsg14
F4731894227
sg15
F1014234905
sg16
F1982412261
sg17
F2663425324
sg18
F28166780724
sg19
F534305000000
sg20
Nsg21
Nsg22
Nsg23
Nsg24
F10145403039
sg25
Nsg26
F8290072275
sg27
Nsg28
F3212338594
sg29
F166129907.59999999
sg30
Nsg31
F72227262.060000002
sg32
Nsg33
Nsg34
F27730100501
sg35
Nsg36
Nsg37
Nsg38
F651021110.39999998
sg39
Nsg40
F17211399306
sg41
F2064836371
sg42
Nsg43
Nsg44
Nsg45
Nsg46
Nsg47
F6940237805
sg48
F234071000000
sg49
Nsg50
F594932194.5
sg51
F9805642142
sg52
Nsg53
F62285057423
sg54
Nsg55
Nsg56
Nsg57
Nsg58
Nsg59
F61213738316
sg60
Nsg61
Nsg62
F317779000000
sg63
F11381911949
sg64
Nsg65
Nsg66
Nsg67
F62858719422
sg68
Nsg69
Nsg70
F89439694.680000007
sg71
F21997487229
sg72
F6650513846
sg73
Nsg74
Nsg75
Nsg76
F7297186399
sg77
Nsg78
F714185024.20000005
sg79
Nsg80
Nsg81
Nsg82
F5413771253
sg83
Nsg84
F750770664.29999995
sg85
F102640360.8
sg86
F20931870144
sg87
Nsg88
Nsg89
F540383516.70000005
sg90
F897603084.89999998
sg91
Nsg92
Nsg93
Nsg94
Nsg95
Nsg96
Nsg97
F1939500000000
sg98
Nsg99
Nsg100
F34747783919
sg101
F41357182119
sg102
F77173849.870000005
sg103
F1408023676
sg104
F556570498.39999998
sg105
Nsg106
F13488105661
sg107
F46066860758
sg108
Nsg109
Nsg110
Nsg111
Nsg112
F36868435922
sg113
F1409147638
sg114
Nsg115
F199587000000
sg116
Nsg117
Nsg118
F2081354098
sg119
F3023944668
sg120
F2903469793
sg121
Nsg122
Nsg123
F14368218670
sg124
Nsg125
Nsg126
Nsg127
Nsg128
F83710365711
sg129
F11784092295
sg130
Nsg131
Nsg132
F47411297.640000001
sg133
Nsg134
Nsg135
Nsg136
F55998690160
sg137
Nsg138
Nsg139
F175157766.19999999
sg140
Nsg141
Nsg142
F27979949577
sg143
F29849637212
sg144
Nsg145
F34807001303
sg146
F12815123894
sg147
Nsg148
Nsg149
Nsg150
F31379644141
sg151
Nsg152
F86918313.189999998
sg153
Nsg154
Nsg155
Nsg156
Nsg157
Nsg158
F46033251421
sg159
F197002000000
sg160
F20471647632
sg161
Nsg162
Nsg163
F1431548261
sg164
Nsg165
F161180000000
sg166
F31221849977
sg167
F850500375.29999995
sg168
F557095138.60000002
sg169
F901397514.20000005
sg170
F3153935671
sg171
F300729000000
sg172
Nsg173
Nsg174
F10349812869
sg175
F2699664078
sg176
F6584422871
sg177
F1000737155
sg178
F80445541379
sg179
Nsg180
F548978133.79999995
sg181
Nsg182
Nsg183
F57657824592
sg184
F12483733235
sg185
F39495856363
sg186
F1288947917
sg187
Nsg188
F2594901941
sg189
F1789365530
sg190
F775564100.5
sg191
F4432478500
sg192
Nsg193
F482947000000
sg194
Nsg195
Nsg196
Nsg197
Nsg198
Nsg199
Nsg200
Nsg201
Nsg202
F3027309642
sg203
F4884756686
sg204
Nsg205
Nsg206
Nsg207
Nsg208
Nsg209
F614148279.10000002
sg210
F285876000000
sg211
F113045303.5
sg212
Nsg213
F46865937607
sg214
F3815776540
sg215
Nsg216
NssI1982
(dp238
g3
F167076000000
sg4
Nsg5
Nsg6
Nsg7
Nsg8
Nsg9
F58083666654
sg10
F7879523850
sg11
Nsg12
F587425217.79999995
sg13
Nsg14
F5779180453
sg15
F1065125099
sg16
F2057931506
sg17
F2833585005
sg18
F34130337597
sg19
F589724000000
sg20
Nsg21
Nsg22
Nsg23
Nsg24
F10931614283
sg25
Nsg26
F10167730568
sg27
Nsg28
F4054683481
sg29
F132199133.90000001
sg30
Nsg31
F68718905.560000002
sg32
Nsg33
Nsg34
F32572109523
sg35
Nsg36
Nsg37
Nsg38
F686230170.20000005
sg39
Nsg40
F17914485987
sg41
F2277601919
sg42
Nsg43
Nsg44
Nsg45
Nsg46
Nsg47
F6551042495
sg48
F254257000000
sg49
Nsg50
F674327898.70000005
sg51
F10051691405
sg52
Nsg53
F68664614701
sg54
Nsg55
Nsg56
Nsg57
Nsg58
Nsg59
F69236549567
sg60
Nsg61
Nsg62
F346039000000
sg63
F9856069356
sg64
Nsg65
Nsg66
Nsg67
F65907934671
sg68
Nsg69
Nsg70
F105703658.7
sg71
F23475255334
sg72
F6983470093
sg73
Nsg74
Nsg75
Nsg76
F7124794450
sg77
Nsg78
F751334436.79999995
sg79
Nsg80
Nsg81
Nsg82
F6190119724
sg83
Nsg84
F809337591.29999995
sg85
F100477099.3
sg86
F23161543491
sg87
Nsg88
Nsg89
F686568270.79999995
sg90
F975617179.60000002
sg91
Nsg92
Nsg93
Nsg94
Nsg95
Nsg96
Nsg97
F2075500000000
sg98
Nsg99
Nsg100
F38599881857
sg101
F45070450706
sg102
F89603207.560000002
sg103
F1659461042
sg104
F589742268.10000002
sg105
Nsg106
F14695789715
sg107
F49502169005
sg108
Nsg109
Nsg110
F1809999951
sg111
Nsg112
F39440103008
sg113
F1550737986
sg114
Nsg115
F223363000000
sg116
Nsg117
Nsg118
F2028964052
sg119
F2772749535
sg120
F3074818918
sg121
Nsg122
Nsg123
F14088286625
sg124
Nsg125
Nsg126
Nsg127
Nsg128
F92119382064
sg129
F12852194443
sg130
Nsg131
Nsg132
F51211193.780000001
sg133
Nsg134
Nsg135
Nsg136
F60541844962
sg137
Nsg138
Nsg139
F164832738.5
sg140
Nsg141
Nsg142
F29956620042
sg143
F32955584498
sg144
Nsg145
F37575715724
sg146
F14097799648
sg147
Nsg148
Nsg149
Nsg150
F34107642546
sg151
Nsg152
F91630463.450000003
sg153
Nsg154
Nsg155
Nsg156
Nsg157
Nsg158
F49020840386
sg159
F202775000000
sg160
F22685231764
sg161
Nsg162
Nsg163
F1502308447
sg164
Nsg165
F170179000000
sg166
F33678356518
sg167
F940624501.29999995
sg168
F572986767.10000002
sg169
F886762668.89999998
sg170
F3283170488
sg171
F320492000000
sg172
Nsg173
Nsg174
F12679074924
sg175
F2893370150
sg176
F7183325290
sg177
F1098432137
sg178
F83674769797
sg179
Nsg180
F565818911.60000002
sg181
Nsg182
Nsg183
F65852031392
sg184
F14194879276
sg185
F44975459941
sg186
F1427723426
sg187
Nsg188
F2882027452
sg189
F1822467703
sg190
F808227279
sg191
F5708892170
sg192
Nsg193
F504605000000
sg194
Nsg195
Nsg196
Nsg197
Nsg198
Nsg199
Nsg200
Nsg201
Nsg202
F3121278522
sg203
F5583854596
sg204
Nsg205
Nsg206
Nsg207
Nsg208
Nsg209
F649124133.79999995
sg210
F305637000000
sg211
F145535541.19999999
sg212
Nsg213
F51129772424
sg214
F3978027013
sg215
Nsg216
NssI1983
(dp239
g3
F178841000000
sg4
Nsg5
Nsg6
Nsg7
Nsg8
Nsg9
F61346612368
sg10
F9104399825
sg11
Nsg12
F573210052.89999998
sg13
Nsg14
F5606770659
sg15
F1127476917
sg16
F2040096865
sg17
F2825747663
sg18
F37054623698
sg19
F635381000000
sg20
Nsg21
Nsg22
Nsg23
Nsg24
F11324347509
sg25
Nsg26
F8138074449
sg27
Nsg28
F4316166358
sg29
F133584716.40000001
sg30
Nsg31
F69576151.299999997
sg32
Nsg33
Nsg34
F34935745472
sg35
Nsg36
Nsg37
Nsg38
F758877603.29999995
sg39
Nsg40
F19261662772
sg41
F2406886679
sg42
Nsg43
Nsg44
Nsg45
Nsg46
Nsg47
F6405577283
sg48
F274653000000
sg49
Nsg50
F720636533.60000002
sg51
F10160002859
sg52
Nsg53
F79100325003
sg54
Nsg55
Nsg56
Nsg57
Nsg58
Nsg59
F78792557509
sg60
Nsg61
Nsg62
F364021000000
sg63
F10585403677
sg64
Nsg65
Nsg66
Nsg67
F63818421818
sg68
F106677265.09999999
sg69
Nsg70
F101833879.7
sg71
F24970075629
sg72
F7283934229
sg73
Nsg74
Nsg75
Nsg76
F7813568665
sg77
Nsg78
F714143933
sg79
Nsg80
Nsg81
Nsg82
F6422389227
sg83
Nsg84
F826148743.5
sg85
F125315726.3
sg86
F24968940858
sg87
Nsg88
Nsg89
F590654747.10000002
sg90
F1019482440
sg91
Nsg92
Nsg93
Nsg94
Nsg95
Nsg96
Nsg97
F2288500000000
sg98
Nsg99
Nsg100
F38731089183
sg101
F48311361118
sg102
F94349411.980000004
sg103
F1841576987
sg104
F606937052.60000002
sg105
Nsg106
F16048825729
sg107
F54379312034
sg108
Nsg109
Nsg110
F2284956055
sg111
Nsg112
F40939015006
sg113
F1682172116
sg114
Nsg115
F229297000000
sg116
Nsg117
Nsg118
F2459334623
sg119
F4535563817
sg120
F3221992412
sg121
Nsg122
Nsg123
F14821328169
sg124
Nsg125
Nsg126
Nsg127
Nsg128
F99488161018
sg129
F13924006921
sg130
Nsg131
Nsg132
F58544067.020000003
sg133
Nsg134
Nsg135
Nsg136
F63054529048
sg137
Nsg138
Nsg139
F156956442.69999999
sg140
Nsg141
Nsg142
F31877215248
sg143
F35277455608
sg144
Nsg145
F38717277803
sg146
F14825918879
sg147
Nsg148
Nsg149
Nsg150
F38034703611
sg151
Nsg152
F88505057.280000001
sg153
Nsg154
Nsg155
F1036430531
sg156
Nsg157
Nsg158
F50057425702
sg159
F200170000000
sg160
F24733874560
sg161
Nsg162
Nsg163
F1617653015
sg164
Nsg165
F178199000000
sg166
F35045775721
sg167
F914929102
sg168
F605814084.20000005
sg169
F910526153.29999995
sg170
F3429931542
sg171
F333690000000
sg172
Nsg173
Nsg174
F12989532365
sg175
F2887267212
sg176
F7836184970
sg177
F1147465550
sg178
F88375902870
sg179
Nsg180
F665711653.20000005
sg181
Nsg182
Nsg183
F73587472201
sg184
F15825038874
sg185
F50819821862
sg186
F1405343542
sg187
Nsg188
F2879377757
sg189
F2155529142
sg190
F859663227.20000005
sg191
F5431426260
sg192
Nsg193
F533766000000
sg194
Nsg195
Nsg196
Nsg197
Nsg198
Nsg199
Nsg200
Nsg201
Nsg202
F3234185905
sg203
F5746483365
sg204
Nsg205
F7019094599
sg206
Nsg207
Nsg208
Nsg209
F661963206.79999995
sg210
F332931000000
sg211
F136332888
sg212
Nsg213
F54442507696
sg214
F3829404100
sg215
Nsg216
NssI1984
(dp240
g3
F193464000000
sg4
Nsg5
Nsg6
Nsg7
Nsg8
Nsg9
F64698150317
sg10
F7940609401
sg11
Nsg12
F632958194.10000002
sg13
Nsg14
F6142560103
sg15
F1519602657
sg16
F2135952246
sg17
F3026593526
sg18
F39262856086
sg19
F678543000000
sg20
Nsg21
Nsg22
Nsg23
Nsg24
F11958178760
sg25
Nsg26
F8518617179
sg27
Nsg28
F4525967436
sg29
F199598477.59999999
sg30
Nsg31
F84548264.439999998
sg32
Nsg33
Nsg34
F39752044667
sg35
Nsg36
Nsg37
Nsg38
F901673931.5
sg39
Nsg40
F20764638432
sg41
F2688402743
sg42
Nsg43
Nsg44
Nsg45
Nsg46
Nsg47
F6644839044
sg48
F292675000000
sg49
Nsg50
F768157638.29999995
sg51
F11318426243
sg52
Nsg53
F88286193196
sg54
Nsg55
Nsg56
Nsg57
Nsg58
Nsg59
F87919663391
sg60
Nsg61
Nsg62
F380566000000
sg63
F9715857696
sg64
Nsg65
Nsg66
Nsg67
F71437641681
sg68
F126766407.8
sg69
Nsg70
F89652817.359999999
sg71
F26740495257
sg72
F7855659937
sg73
Nsg74
Nsg75
Nsg76
F8715498222
sg77
Nsg78
F933658697.10000002
sg79
Nsg80
Nsg81
Nsg82
F6785774779
sg83
Nsg84
F895791338.79999995
sg85
F127866596.5
sg86
F26762357744
sg87
Nsg88
Nsg89
F681640173.60000002
sg90
F1098235076
sg91
Nsg92
Nsg93
Nsg94
Nsg95
Nsg96
Nsg97
F2501100000000
sg98
Nsg99
Nsg100
F42552587470
sg101
F52626929822
sg102
F87667277.010000005
sg103
F2015313008
sg104
Nsg105
Nsg106
F17499750571
sg107
F55431676984
sg108
Nsg109
Nsg110
F1974095197
sg111
Nsg112
F42819837038
sg113
F1658291561
sg114
Nsg115
F267540000000
sg116
Nsg117
Nsg118
F3047637578
sg119
F5271378246
sg120
F3392168220
sg121
Nsg122
Nsg123
F15692442287
sg124
Nsg125
Nsg126
Nsg127
Nsg128
F105414000000
sg129
F17647754045
sg130
Nsg131
Nsg132
F61057816.780000001
sg133
Nsg134
Nsg135
Nsg136
F65676533537
sg137
Nsg138
Nsg139
F158025778.90000001
sg140
Nsg141
Nsg142
F34355002991
sg143
F37339925845
sg144
Nsg145
F38962863164
sg146
F16003864386
sg147
Nsg148
Nsg149
Nsg150
F41263937085
sg151
Nsg152
F97012968.709999993
sg153
Nsg154
Nsg155
F1110745324
sg156
Nsg157
Nsg158
F52885887847
sg159
F214507000000
sg160
F27089005232
sg161
Nsg162
Nsg163
F1730625263
sg164
Nsg165
F184572000000
sg166
F38995162322
sg167
F995205371.10000002
sg168
F637031805.10000002
sg169
F982599171.70000005
sg170
F3536018728
sg171
F356532000000
sg172
Nsg173
Nsg174
F13327937281
sg175
F3398079578
sg176
F8681448793
sg177
F1244544868
sg178
F92273542340
sg179
Nsg180
F570508200.29999995
sg181
Nsg182
Nsg183
F78231545143
sg184
F15933945321
sg185
F55912212887
sg186
F1512525966
sg187
Nsg188
F3007334008
sg189
F2203946211
sg190
F902315697.5
sg191
F4357217291
sg192
Nsg193
F564786000000
sg194
Nsg195
Nsg196
Nsg197
Nsg198
Nsg199
Nsg200
Nsg201
Nsg202
F3456772070
sg203
F6348372963
sg204
Nsg205
F7692729883
sg206
Nsg207
Nsg208
Nsg209
F751917808.89999998
sg210
F353517000000
sg211
F99874631.829999998
sg212
Nsg213
F56676577548
sg214
F4673286898
sg215
Nsg216
NssI1985
(dp241
g3
F209713000000
sg4
Nsg5
Nsg6
Nsg7
Nsg8
Nsg9
F68244974194
sg10
F8823159405
sg11
Nsg12
F678244258.29999995
sg13
Nsg14
F7000547294
sg15
F1642986762
sg16
F2217017857
sg17
F3414787459
sg18
F41743453046
sg19
F729631000000
sg20
Nsg21
Nsg22
Nsg23
Nsg24
F12269696000
sg25
Nsg26
F9802612411
sg27
Nsg28
F4955498120
sg29
F185208325.69999999
sg30
F1752359021
sg31
F94330755.939999998
sg32
Nsg33
Nsg34
F44257819766
sg35
Nsg36
Nsg37
Nsg38
F907049862.89999998
sg39
Nsg40
F21738130051
sg41
F2938343544
sg42
Nsg43
Nsg44
Nsg45
Nsg46
Nsg47
F6998245455
sg48
F316915000000
sg49
Nsg50
F754515350.60000002
sg51
F10625593141
sg52
Nsg53
F88978299484
sg54
Nsg55
Nsg56
Nsg57
F529256836.5
sg58
Nsg59
F97411540542
sg60
Nsg61
Nsg62
F400495000000
sg63
F9731979243
sg64
Nsg65
Nsg66
Nsg67
F76728351793
sg68
F140417807.90000001
sg69
Nsg70
F87858323.349999994
sg71
F30163075235
sg72
F8222968582
sg73
Nsg74
Nsg75
Nsg76
F10401715975
sg77
Nsg78
F1190838814
sg79
Nsg80
Nsg81
Nsg82
F8231127051
sg83
Nsg84
F772187302.5
sg85
F137617926
sg86
F28658184677
sg87
Nsg88
Nsg89
F848440302.89999998
sg90
F1204260185
sg91
Nsg92
Nsg93
Nsg94
Nsg95
Nsg96
F31039986323
sg97
F2717600000000
sg98
Nsg99
Nsg100
F45868842447
sg101
F51939158545
sg102
F88079281.430000007
sg103
F2207100414
sg104
Nsg105
Nsg106
F18374645420
sg107
F58300873412
sg108
Nsg109
F2240304897
sg110
F1613329385
sg111
Nsg112
F44809575197
sg113
F1715691208
sg114
Nsg115
F284896000000
sg116
Nsg117
Nsg118
F3301404848
sg119
F5781400120
sg120
F3598294568
sg121
Nsg122
Nsg123
F16952148644
sg124
Nsg125
Nsg126
Nsg127
Nsg128
F110028000000
sg129
F18473967718
sg130
Nsg131
Nsg132
F64751239.219999999
sg133
Nsg134
Nsg135
Nsg136
F69678172421
sg137
Nsg138
Nsg139
F169686093.5
sg140
Nsg141
Nsg142
F37008290710
sg143
F36491618835
sg144
Nsg145
F40538700231
sg146
F17269729572
sg147
Nsg148
Nsg149
Nsg150
F43604600536
sg151
Nsg152
F115712226.40000001
sg153
Nsg154
Nsg155
F1351600722
sg156
Nsg157
Nsg158
F56366467726
sg159
F229424000000
sg160
F29051719606
sg161
Nsg162
Nsg163
F1911100450
sg164
Nsg165
F194974000000
sg166
F40963607168
sg167
F1196123312
sg168
F666712922.60000002
sg169
F955179251.10000002
sg170
F3862572803
sg171
F378770000000
sg172
Nsg173
Nsg174
F12204880582
sg175
F3644560860
sg176
F9028506674
sg177
F1356051767
sg178
F96620988387
sg179
Nsg180
F457548677.5
sg181
Nsg182
Nsg183
F84017114555
sg184
F16167337222
sg185
F58493715984
sg186
F1628041772
sg187
F3774856489
sg188
F3061351444
sg189
F2456308228
sg190
F962396688.79999995
sg191
F4010094179
sg192
Nsg193
F594076000000
sg194
Nsg195
Nsg196
Nsg197
Nsg198
Nsg199
Nsg200
Nsg201
Nsg202
F3729400550
sg203
F6432954131
sg204
Nsg205
F8161643505
sg206
Nsg207
Nsg208
Nsg209
F865485428.10000002
sg210
F379284000000
sg211
F233958707.69999999
sg212
Nsg213
F58797391170
sg214
F4966241183
sg215
Nsg216
NssI1986
(dp242
g3
F222828000000
sg4
Nsg5
Nsg6
Nsg7
Nsg8
Nsg9
F71865190356
sg10
F9582309856
sg11
Nsg12
F618248279.89999998
sg13
Nsg14
F6722327318
sg15
F1709265890
sg16
F2344487209
sg17
F4121154544
sg18
F38817887591
sg19
F775178000000
sg20
Nsg21
Nsg22
Nsg23
Nsg24
F12699107741
sg25
Nsg26
F8801152370
sg27
Nsg28
F4832181656
sg29
F204487704.30000001
sg30
F1280150024
sg31
F92549650.349999994
sg32
Nsg33
Nsg34
F45874645719
sg35
Nsg36
Nsg37
Nsg38
F1001268665
sg39
Nsg40
F23184542077
sg41
F3132747078
sg42
Nsg43
Nsg44
Nsg45
Nsg46
Nsg47
F7520935918
sg48
F333006000000
sg49
Nsg50
F734154500.10000002
sg51
F12653539917
sg52
Nsg53
F94349794564
sg54
Nsg55
Nsg56
F33005190234
sg57
F623715722.5
sg58
Nsg59
F108361000000
sg60
Nsg61
Nsg62
F424657000000
sg63
F9048625201
sg64
Nsg65
Nsg66
Nsg67
F89990203646
sg68
F141263857.09999999
sg69
Nsg70
F79461256.769999996
sg71
F32456907943
sg72
F8373448212
sg73
Nsg74
Nsg75
Nsg76
F10240707805
sg77
Nsg78
F1191139053
sg79
F241776000000
sg80
Nsg81
Nsg82
F8645495497
sg83
Nsg84
F732236084.29999995
sg85
F142825316.59999999
sg86
F30466225971
sg87
Nsg88
Nsg89
F886944152
sg90
F1302686536
sg91
Nsg92
Nsg93
Nsg94
Nsg95
Nsg96
F31869150353
sg97
F2896700000000
sg98
Nsg99
Nsg100
F44574816644
sg101
F53155278025
sg102
F101416100.8
sg103
F2299498518
sg104
Nsg105
Nsg106
F16834002552
sg107
F60926101374
sg108
Nsg109
Nsg110
F1641765478
sg111
Nsg112
F46434307114
sg113
F1615557941
sg114
Nsg115
F320703000000
sg116
Nsg117
Nsg118
F3276803595
sg119
F6330465339
sg120
F3807727174
sg121
F225103026.5
sg122
Nsg123
F17713994529
sg124
Nsg125
Nsg126
Nsg127
Nsg128
F117453000000
sg129
F19172710111
sg130
Nsg131
Nsg132
F78316720.829999998
sg133
Nsg134
Nsg135
Nsg136
F73309196079
sg137
Nsg138
Nsg139
F164567894.90000001
sg140
Nsg141
Nsg142
F40757391732
sg143
F38970058084
sg144
Nsg145
F43887776392
sg146
F19473623173
sg147
Nsg148
Nsg149
Nsg150
F46160754669
sg151
Nsg152
F118974956
sg153
Nsg154
Nsg155
F1257192348
sg156
Nsg157
Nsg158
F60799152030
sg159
F228351000000
sg160
F32432040062
sg161
Nsg162
Nsg163
F1911921002
sg164
Nsg165
F206517000000
sg166
F45458454881
sg167
F1198561027
sg168
F724422089.10000002
sg169
F1163373177
sg170
F3802007633
sg171
F403761000000
sg172
Nsg173
Nsg174
F12100273852
sg175
F3865873876
sg176
F9747203874
sg177
F1394957298
sg178
F101317000000
sg179
Nsg180
F301143171.39999998
sg181
Nsg182
Nsg183
F78303020569
sg184
F18739560045
sg185
F62356886267
sg186
F1782966514
sg187
F3722477020
sg188
F3286626108
sg189
F2444134642
sg190
F981255943.29999995
sg191
F3946738402
sg192
Nsg193
F631747000000
sg194
Nsg195
Nsg196
Nsg197
Nsg198
Nsg199
Nsg200
Nsg201
Nsg202
F3770759460
sg203
F6421225285
sg204
F105255902.5
sg205
F8521217938
sg206
Nsg207
F2230354619
sg208
Nsg209
F896987793.10000002
sg210
F413652000000
sg211
F209668940.09999999
sg212
Nsg213
F59378455415
sg214
F4921651416
sg215
Nsg216
NssI1987
(dp243
g3
F240738000000
sg4
Nsg5
Nsg6
Nsg7
Nsg8
Nsg9
F76767660333
sg10
F11064679388
sg11
Nsg12
F609424193.70000005
sg13
F167512000000
sg14
F7001140981
sg15
F1844283528
sg16
F2421396500
sg17
F4585361017
sg18
F39557673670
sg19
F839068000000
sg20
Nsg21
Nsg22
Nsg23
Nsg24
F13685184021
sg25
Nsg26
F9271861308
sg27
Nsg28
F4881500786
sg29
F228197969.69999999
sg30
F1357315635
sg31
F107038490
sg32
Nsg33
Nsg34
F47945873946
sg35
Nsg36
Nsg37
Nsg38
F956047535.39999998
sg39
Nsg40
F25113017567
sg41
F3604683323
sg42
Nsg43
Nsg44
Nsg45
Nsg46
Nsg47
F9094774551
sg48
F352476000000
sg49
Nsg50
F711641276.5
sg51
F14016910382
sg52
Nsg53
F121724000000
sg54
Nsg55
Nsg56
F36456190170
sg57
F624905594.89999998
sg58
Nsg59
F121060000000
sg60
Nsg61
Nsg62
F454660000000
sg63
F8619255260
sg64
Nsg65
Nsg66
Nsg67
F100109000000
sg68
F132528351.40000001
sg69
Nsg70
F96491043.769999996
sg71
F33454488512
sg72
F8263989399
sg73
Nsg74
Nsg75
Nsg76
F9569825942
sg77
Nsg78
F1234852493
sg79
F270286000000
sg80
Nsg81
Nsg82
F9910712658
sg83
Nsg84
F937474500.29999995
sg85
F147226487.30000001
sg86
F33101513163
sg87
Nsg88
Nsg89
F900657245.10000002
sg90
F1645823812
sg91
Nsg92
Nsg93
Nsg94
Nsg95
Nsg96
F35131531229
sg97
F3097000000000
sg98
Nsg99
Nsg100
F51934284792
sg101
F56978209719
sg102
F123255015.40000001
sg103
F2511757150
sg104
Nsg105
Nsg106
F17979067412
sg107
F64766100659
sg108
Nsg109
F2508884942
sg110
F1774244614
sg111
Nsg112
F49610173736
sg113
F1916027729
sg114
Nsg115
F293369000000
sg116
Nsg117
Nsg118
F3265108455
sg119
F6882661334
sg120
F4132084787
sg121
F239397188.19999999
sg122
Nsg123
F18987090063
sg124
Nsg125
Nsg126
Nsg127
Nsg128
F124613000000
sg129
F19796478840
sg130
Nsg131
Nsg132
F91104344.75
sg133
Nsg134
Nsg135
Nsg136
F77382473018
sg137
Nsg138
Nsg139
F205063018.5
sg140
Nsg141
Nsg142
F41463870587
sg143
F42263633330
sg144
Nsg145
F47924721409
sg146
F19625077705
sg147
Nsg148
Nsg149
F177122205.80000001
sg150
F52445852288
sg151
Nsg152
F135108847.19999999
sg153
Nsg154
Nsg155
F1244074947
sg156
Nsg157
Nsg158
F66464212691
sg159
F236520000000
sg160
F37162533027
sg161
Nsg162
Nsg163
F1983498276
sg164
Nsg165
F226947000000
sg166
F50313047897
sg167
F1110907976
sg168
F750317806.20000005
sg169
F1335052749
sg170
F4329087385
sg171
F434016000000
sg172
Nsg173
Nsg174
F15459982687
sg175
F4126129195
sg176
F11363608883
sg177
F1473727698
sg178
F107265000000
sg179
Nsg180
F167934229.09999999
sg181
Nsg182
Nsg183
F73665764539
sg184
F21233386074
sg185
F67266190976
sg186
F2148234340
sg187
F5400131128
sg188
F3558273239
sg189
F2661142490
sg190
F909761934.70000005
sg191
F3600890177
sg192
Nsg193
F678562000000
sg194
Nsg195
Nsg196
Nsg197
Nsg198
Nsg199
Nsg200
Nsg201
Nsg202
F4027952852
sg203
F6355844146
sg204
F155093016.80000001
sg205
F8846784286
sg206
Nsg207
F4163273012
sg208
Nsg209
F934608352
sg210
F452640000000
sg211
F204031588.09999999
sg212
Nsg213
F63258949311
sg214
F5898104763
sg215
Nsg216
NssI1988
(dp244
g3
F261100000000
sg4
Nsg5
Nsg6
F1693759507
sg7
Nsg8
Nsg9
F81526406006
sg10
F9871973357
sg11
Nsg12
F657624133.29999995
sg13
F182969000000
sg14
F7523027860
sg15
Nsg16
F2634721012
sg17
F5081258950
sg18
F41934412818
sg19
F917366000000
sg20
Nsg21
Nsg22
Nsg23
Nsg24
F14813082303
sg25
Nsg26
F10446773371
sg27
Nsg28
F4638773603
sg29
F239247693.09999999
sg30
F1417278078
sg31
F120941808.2
sg32
Nsg33
Nsg34
F53665968498
sg35
Nsg36
Nsg37
Nsg38
F1169062001
sg39
Nsg40
F26666586824
sg41
F4096636461
sg42
Nsg43
Nsg44
Nsg45
Nsg46
Nsg47
F10157931687
sg48
F390266000000
sg49
Nsg50
F821728171.10000002
sg51
F14514255964
sg52
Nsg53
F128105000000
sg54
Nsg55
Nsg56
F39005409019
sg57
F642644857.10000002
sg58
Nsg59
F137062000000
sg60
Nsg61
Nsg62
F487830000000
sg63
F10327374496
sg64
Nsg65
Nsg66
Nsg67
F49823836939
sg68
F146184837.5
sg69
Nsg70
F113196538.40000001
sg71
F34051761372
sg72
F8107013823
sg73
Nsg74
Nsg75
Nsg76
F9293668885
sg77
Nsg78
F1516986129
sg79
F304087000000
sg80
Nsg81
Nsg82
F10089881009
sg83
Nsg84
F1133224804
sg85
F164334989.5
sg86
F36452621172
sg87
Nsg88
Nsg89
F1036932037
sg90
F1875081681
sg91
Nsg92
Nsg93
F1647630251
sg94
Nsg95
Nsg96
F35687960610
sg97
F3350000000000
sg98
Nsg99
Nsg100
F55690030583
sg101
F63958768413
sg102
F136495017.40000001
sg103
F2884288835
sg104
Nsg105
Nsg106
F21212221922
sg107
F68793674569
sg108
Nsg109
F2780358614
sg110
F1940269347
sg111
Nsg112
F49720470574
sg113
F1774946499
sg114
Nsg115
F300010000000
sg116
Nsg117
Nsg118
F3165011054
sg119
F7375867983
sg120
F4552104098
sg121
F298244162.60000002
sg122
Nsg123
F20635717232
sg124
Nsg125
Nsg126
Nsg127
Nsg128
F135838000000
sg129
F21794802716
sg130
Nsg131
Nsg132
F84390211.920000002
sg133
Nsg134
Nsg135
Nsg136
F83144089723
sg137
Nsg138
Nsg139
F241278687.69999999
sg140
Nsg141
Nsg142
F42386393505
sg143
F46821481494
sg144
Nsg145
F53266692322
sg146
F22221922491
sg147
Nsg148
Nsg149
F223021222.59999999
sg150
F59542248425
sg151
Nsg152
F144899627.80000001
sg153
Nsg154
Nsg155
F1391842678
sg156
Nsg157
Nsg158
F70975109396
sg159
F260160000000
sg160
F41814082331
sg161
Nsg162
Nsg163
F2152585600
sg164
Nsg165
F247521000000
sg166
F53792233575
sg167
F1258483101
sg168
F795033730.20000005
sg169
F1372163408
sg170
F4378556415
sg171
F469738000000
sg172
Nsg173
Nsg174
F18463279725
sg175
F4793085854
sg176
F13526242005
sg177
F1675871512
sg178
F113264000000
sg179
F1184572786
sg180
F260282348.5
sg181
Nsg182
Nsg183
F73148960696
sg184
F23106411596
sg185
F80705860401
sg186
F2148804603
sg187
F5638864840
sg188
F3829186915
sg189
F2776177218
sg190
F1044217143
sg191
F4018538198
sg192
Nsg193
F724328000000
sg194
Nsg195
Nsg196
Nsg197
Nsg198
Nsg199
Nsg200
Nsg201
Nsg202
F4232334541
sg203
F6114020183
sg204
F161142721.30000001
sg205
F9524971888
sg206
Nsg207
F3975291320
sg208
Nsg209
F1103001256
sg210
F507161000000
sg211
F226586036
sg212
Nsg213
F69848519279
sg214
F6262532969
sg215
Nsg216
NssI1989
(dp245
g3
F281792000000
sg4
Nsg5
Nsg6
Nsg7
Nsg8
Nsg9
F87218898587
sg10
F11125350806
sg11
Nsg12
F734034834.70000005
sg13
F175692000000
sg14
F7853041486
sg15
F2025179128
sg16
F2857590008
sg17
F5712534345
sg18
F45268104294
sg19
F1003470000000
sg20
Nsg21
Nsg22
Nsg23
Nsg24
F15995440951
sg25
Nsg26
F12586145227
sg27
Nsg28
F3888547219
sg29
F311384921.80000001
sg30
F1533109071
sg31
F138047690.69999999
sg32
Nsg33
Nsg34
F57544961391
sg35
Nsg36
Nsg37
Nsg38
F1542649033
sg39
Nsg40
F28229616161
sg41
F4734060547
sg42
Nsg43
Nsg44
Nsg45
Nsg46
Nsg47
F10652618870
sg48
F442508000000
sg49
Nsg50
F886843072.79999995
sg51
F17199127842
sg52
Nsg53
F132291000000
sg54
Nsg55
Nsg56
F42175359536
sg57
F703366771.5
sg58
Nsg59
F158057000000
sg60
Nsg61
Nsg62
F524523000000
sg63
F9691294531
sg64
Nsg65
Nsg66
Nsg67
F45852091108
sg68
F150010997.80000001
sg69
Nsg70
F136733005.5
sg71
F35313480904
sg72
F8850927443
sg73
Nsg74
Nsg75
Nsg76
F9670272529
sg77
Nsg78
F1673471891
sg79
F301716000000
sg80
Nsg81
Nsg82
F9501417550
sg83
Nsg84
F1293111137
sg85
F169484287.19999999
sg86
F40104450661
sg87
Nsg88
Nsg89
F1119092378
sg90
F2113529790
sg91
Nsg92
Nsg93
F1850521223
sg94
Nsg95
Nsg96
F38129159839
sg97
F3594500000000
sg98
Nsg99
Nsg100
F59804724770
sg101
F69555490810
sg102
F177229704.59999999
sg103
F3234259407
sg104
F1140230519
sg105
Nsg106
F25042431164
sg107
F74415155664
sg108
Nsg109
F3278737193
sg110
F2899653323
sg111
Nsg112
F52830540141
sg113
F2143102463
sg114
Nsg115
F252734000000
sg116
Nsg117
Nsg118
F3976401262
sg119
F8113858867
sg120
F4980967803
sg121
F343155427.80000001
sg122
Nsg123
F22941526879
sg124
Nsg125
Nsg126
Nsg127
Nsg128
F148305000000
sg129
F26364383849
sg130
Nsg131
Nsg132
F96875347.280000001
sg133
Nsg134
Nsg135
Nsg136
F89610041551
sg137
Nsg138
Nsg139
F285700031.5
sg140
Nsg141
Nsg142
F44225910822
sg143
F51572910898
sg144
Nsg145
F57276011076
sg146
F24218070596
sg147
Nsg148
Nsg149
F282130482.19999999
sg150
F68986127310
sg151
Nsg152
F161452931.09999999
sg153
Nsg154
Nsg155
F1555418552
sg156
Nsg157
Nsg158
F75021602132
sg159
F291235000000
sg160
F45083394363
sg161
Nsg162
Nsg163
F2409047590
sg164
Nsg165
F272296000000
sg166
F57574898491
sg167
F1357313582
sg168
F914586438.70000005
sg169
F1458574176
sg170
F4694473955
sg171
F509603000000
sg172
Nsg173
Nsg174
F17603846652
sg175
F5358745749
sg176
F15659850531
sg177
F1912564149
sg178
F121914000000
sg179
F1303095067
sg180
F296646008.69999999
sg181
Nsg182
Nsg183
F76483427611
sg184
F24198639093
sg185
F85621944442
sg186
F2148706918
sg187
F5838648442
sg188
F4275841361
sg189
F2846764051
sg190
F1254802039
sg191
F3767600250
sg192
Nsg193
F778921000000
sg194
Nsg195
Nsg196
Nsg197
Nsg198
Nsg199
Nsg200
Nsg201
Nsg202
F4673228253
sg203
F8431515752
sg204
F143040929.5
sg205
F10227982818
sg206
Nsg207
F4315050515
sg208
Nsg209
F1444785164
sg210
F547666000000
sg211
F269652077.5
sg212
Nsg213
F77431964499
sg214
F6608811123
sg215
Nsg216
NssI1990
(dp246
g3
F298059000000
sg4
Nsg5
Nsg6
Nsg7
Nsg8
Nsg9
F92642631477
sg10
F11837598961
sg11
Nsg12
F1413982896
sg13
F171019000000
sg14
F8567839378
sg15
F2118674358
sg16
F3029122583
sg17
F5992291360
sg18
F52097440853
sg19
F1103820000000
sg20
Nsg21
Nsg22
Nsg23
Nsg24
F17270387686
sg25
Nsg26
F9934765070
sg27
Nsg28
F4263785282
sg29
F410850387.89999998
sg30
F1858703831
sg31
F143231930.40000001
sg32
Nsg33
Nsg34
F63210189184
sg35
Nsg36
F7434470995
sg37
Nsg38
F1658709471
sg39
Nsg40
F29452005515
sg41
F4998111072
sg42
Nsg43
Nsg44
Nsg45
Nsg46
Nsg47
F11033233175
sg48
F491830000000
sg49
Nsg50
F891403368
sg51
F16068808684
sg52
Nsg53
F156468000000
sg54
Nsg55
Nsg56
F46825221590
sg57
F769201890.5
sg58
Nsg59
F181907000000
sg60
Nsg61
Nsg62
F561785000000
sg63
F10542156780
sg64
Nsg65
Nsg66
Nsg67
F44986711861
sg68
F169756586.09999999
sg69
Nsg70
F218545691.59999999
sg71
F37182479140
sg72
F9143763177
sg73
Nsg74
Nsg75
Nsg76
F9260714406
sg77
Nsg78
F1616258808
sg79
F330915000000
sg80
Nsg81
Nsg82
F9892908981
sg83
Nsg84
F1426745843
sg85
F167833466.90000001
sg86
F41527547364
sg87
F4301069477
sg88
Nsg89
F1228260077
sg90
F2307564699
sg91
Nsg92
Nsg93
F1984095031
sg94
Nsg95
Nsg96
F42759004505
sg97
F3835400000000
sg98
F76519208552
sg99
F2519358656
sg100
F68805646782
sg101
F78018044693
sg102
F178616025.69999999
sg103
F3799621398
sg104
F1282063658
sg105
Nsg106
F30153451245
sg107
F81061986105
sg108
Nsg109
F3931251411
sg110
F3562857635
sg111
Nsg112
F53778255019
sg113
F2397125361
sg114
Nsg115
F259845000000
sg116
Nsg117
Nsg118
F3905377653
sg119
F8793112701
sg120
F5406945837
sg121
F325704408.10000002
sg122
Nsg123
F24322818020
sg124
Nsg125
Nsg126
Nsg127
F56561592999
sg128
F161913000000
sg129
F28765208336
sg130
F13595002585
sg131
Nsg132
F120583726.09999999
sg133
Nsg134
Nsg135
Nsg136
F96691467233
sg137
Nsg138
Nsg139
F335939061.60000002
sg140
Nsg141
Nsg142
F46598224625
sg143
F56991207201
sg144
Nsg145
F63796338347
sg146
F26323455768
sg147
F18377136588
sg148
Nsg149
F308228782.5
sg150
F82305983114
sg151
Nsg152
F164168168.09999999
sg153
F13049683533
sg154
Nsg155
F1857357207
sg156
Nsg157
Nsg158
F78057372406
sg159
F324119000000
sg160
F49746367167
sg161
Nsg162
Nsg163
F2655258759
sg164
Nsg165
F294740000000
sg166
F62989980338
sg167
F1602115943
sg168
F1009190620
sg169
F1512601026
sg170
F5384118778
sg171
F543892000000
sg172
Nsg173
Nsg174
F17767718422
sg175
F6398420605
sg176
F17830488750
sg177
F2119927243
sg178
F132635000000
sg179
F1454563886
sg180
F577163152
sg181
Nsg182
Nsg183
F84566745724
sg184
F26506367925
sg185
F103774000000
sg186
F2711146939
sg187
F4677232476
sg188
F4452677442
sg189
F2597167385
sg190
F1322163922
sg191
F3939057792
sg192
Nsg193
F848907000000
sg194
Nsg195
F109529000000
sg196
Nsg197
Nsg198
Nsg199
Nsg200
Nsg201
Nsg202
F4631278129
sg203
Nsg204
F115510898.90000001
sg205
F11683066360
sg206
Nsg207
F5355555240
sg208
Nsg209
F1832370623
sg210
F578275000000
sg211
F294401348.80000001
sg212
Nsg213
F83101374502
sg214
F8357283920
sg215
Nsg216
NssI1991
(dp247
g3
F303978000000
sg4
Nsg5
Nsg6
Nsg7
Nsg8
Nsg9
F97620004632
sg10
F10815631397
sg11
Nsg12
F1505269032
sg13
F179601000000
sg14
F9225343021
sg15
F2126010793
sg16
F3080625931
sg17
F6529596713
sg18
F55200544063
sg19
F1168760000000
sg20
Nsg21
Nsg22
Nsg23
F10492720564
sg24
F18693583175
sg25
Nsg26
F9176385009
sg27
Nsg28
F4240414766
sg29
F453277319
sg30
F1924887377
sg31
F156898155.80000001
sg32
Nsg33
Nsg34
F64746152080
sg35
Nsg36
F7767497681
sg37
F3168025387
sg38
F1646681750
sg39
Nsg40
F29762251139
sg41
F5276813435
sg42
Nsg43
Nsg44
Nsg45
Nsg46
Nsg47
F11807586740
sg48
F517097000000
sg49
F1242235787
sg50
F956276634.39999998
sg51
F16208675895
sg52
Nsg53
F166511000000
sg54
Nsg55
Nsg56
F49548387568
sg57
F1085244612
sg58
Nsg59
F205072000000
sg60
Nsg61
Nsg62
F585203000000
sg63
F12677986784
sg64
Nsg65
Nsg66
Nsg67
F47282118102
sg68
F187268260.19999999
sg69
Nsg70
F229454472.69999999
sg71
F39330277110
sg72
F9612731855
sg73
Nsg74
Nsg75
Nsg76
F9340220484
sg77
Nsg78
F1767917225
sg79
F378232000000
sg80
Nsg81
Nsg82
F14807518283
sg83
Nsg84
F2459568531
sg85
F197802232.09999999
sg86
F41475983994
sg87
F5208365380
sg88
Nsg89
F1219580810
sg90
F2487333068
sg91
Nsg92
Nsg93
F2101587300
sg94
Nsg95
Nsg96
F27482607385
sg97
F3980100000000
sg98
F57134727576
sg99
F4047059774
sg100
F70271868077
sg101
F81631307674
sg102
F228628419.5
sg103
F4235286661
sg104
F1334770876
sg105
Nsg106
F34421114462
sg107
F86545176004
sg108
Nsg109
F3993054942
sg110
F3814175259
sg111
Nsg112
F46049190313
sg113
F2591144601
sg114
Nsg115
F275500000000
sg116
Nsg117
Nsg118
F4616213374
sg119
F9132352219
sg120
F5993859934
sg121
F310804433.89999998
sg122
Nsg123
F25652493581
sg124
Nsg125
Nsg126
Nsg127
F46049132338
sg128
F173540000000
sg129
F30513059462
sg130
F13557649753
sg131
Nsg132
F131076939.90000001
sg133
Nsg134
Nsg135
Nsg136
F103213000000
sg137
Nsg138
F6727846108
sg139
F365335146.39999998
sg140
Nsg141
Nsg142
F49102609797
sg143
F59893369010
sg144
Nsg145
F69013221775
sg146
F29669380809
sg147
F19224154542
sg148
Nsg149
F356921028.19999999
sg150
F90560303111
sg151
Nsg152
F186522880
sg153
F13722178911
sg154
Nsg155
F1993241229
sg156
Nsg157
Nsg158
F81608432929
sg159
F351555000000
sg160
F55321451595
sg161
Nsg162
Nsg163
F2623674559
sg164
Nsg165
F314224000000
sg166
F65878663136
sg167
F1654341945
sg168
F1009181533
sg169
F1533778248
sg170
F5787830924
sg171
F578954000000
sg172
Nsg173
Nsg174
F15595966010
sg175
F6756866441
sg176
F19393310178
sg177
F2312313448
sg178
F141153000000
sg179
F1624216267
sg180
F548227481.79999995
sg181
Nsg182
Nsg183
F98022784850
sg184
F29460002735
sg185
F116192000000
sg186
F2893696552
sg187
F4033062131
sg188
F4843285669
sg189
F2955856826
sg190
F1519256649
sg191
F4330186002
sg192
Nsg193
F917986000000
sg194
Nsg195
F121268000000
sg196
Nsg197
Nsg198
Nsg199
F3121134236
sg200
Nsg201
Nsg202
F4739452896
sg203
Nsg204
F71129032.170000002
sg205
F12276593978
sg206
Nsg207
F5556356525
sg208
Nsg209
F2095805284
sg210
F590119000000
sg211
F743256947.20000005
sg212
Nsg213
F88639982184
sg214
F8904480329
sg215
Nsg216
NssI1992
(dp248
g3
F317727000000
sg4
Nsg5
Nsg6
Nsg7
F18596867847
sg8
Nsg9
F100828000000
sg10
F11079213191
sg11
Nsg12
F1752992836
sg13
F188870000000
sg14
F9961411895
sg15
F2028348800
sg16
F3238471373
sg17
F7349204416
sg18
F59320975293
sg19
F1228470000000
sg20
Nsg21
Nsg22
Nsg23
F10413169852
sg24
F20113059946
sg25
Nsg26
F7292824071
sg27
F391465000000
sg28
F5696952321
sg29
F469630810.60000002
sg30
F1880355564
sg31
F157075145.80000001
sg32
Nsg33
Nsg34
F74121161256
sg35
Nsg36
F8389681993
sg37
F5434992450
sg38
F2031812110
sg39
Nsg40
F30914504156
sg41
F5043546315
sg42
Nsg43
Nsg44
Nsg45
Nsg46
Nsg47
F12819329185
sg48
F537366000000
sg49
F9931881177
sg50
F910005181
sg51
F16391683449
sg52
Nsg53
F176938000000
sg54
Nsg55
Nsg56
F53539361226
sg57
F1207326222
sg58
Nsg59
F224312000000
sg60
Nsg61
Nsg62
F608401000000
sg63
F13913640166
sg64
Nsg65
Nsg66
Nsg67
F47590349582
sg68
F193390762.09999999
sg69
Nsg70
F251714651.90000001
sg71
F41444268700
sg72
F9492259567
sg73
Nsg74
F2914607681
sg75
Nsg76
F10054920952
sg77
Nsg78
F1967031268
sg79
F443957000000
sg80
Nsg81
Nsg82
F17501066033
sg83
F118796000000
sg84
F2632208001
sg85
F179481351.19999999
sg86
F41079856564
sg87
F4891612838
sg88
Nsg89
F1253720903
sg90
F2702035333
sg91
Nsg92
F19044180583
sg93
F2623430692
sg94
Nsg95
Nsg96
F26559726869
sg97
F4236900000000
sg98
F53434872322
sg99
F5016374025
sg100
F79541120904
sg101
F84515451405
sg102
F197750417.30000001
sg103
F4589173022
sg104
F1668184920
sg105
Nsg106
F36369708864
sg107
F91994971946
sg108
Nsg109
F3635497257
sg110
F4441983552
sg111
Nsg112
F48238765257
sg113
F2457440908
sg114
Nsg115
F286733000000
sg116
Nsg117
Nsg118
F5060336105
sg119
F10115752641
sg120
F6031677203
sg121
F328879615.10000002
sg122
Nsg123
F27166586234
sg124
Nsg125
Nsg126
Nsg127
F51580190986
sg128
F184179000000
sg129
F32017349823
sg130
F14160061273
sg131
Nsg132
F122678738.3
sg133
Nsg134
Nsg135
Nsg136
F108268000000
sg137
Nsg138
F6468565239
sg139
F466601808.60000002
sg140
Nsg141
Nsg142
F51880946682
sg143
F63199761836
sg144
Nsg145
F74389386735
sg146
F29031752371
sg147
F12894961027
sg148
F932662873.70000005
sg149
F369741326.89999998
sg150
F100806000000
sg151
Nsg152
F208262742.90000001
sg153
F12379256802
sg154
Nsg155
F2001334378
sg156
Nsg157
Nsg158
F82916593926
sg159
F378828000000
sg160
F60512793449
sg161
Nsg162
Nsg163
F2734103972
sg164
Nsg165
F330504000000
sg166
F71380867975
sg167
F1733370259
sg168
F1061689296
sg169
F1393865111
sg170
F5853270982
sg171
F607288000000
sg172
Nsg173
Nsg174
F16855812796
sg175
F7222512894
sg176
F21144861371
sg177
F2518724426
sg178
F146344000000
sg179
F1812106519
sg180
F527796209.39999998
sg181
Nsg182
Nsg183
F102910000000
sg184
F32735982050
sg185
F124521000000
sg186
F2882412141
sg187
F5978126785
sg188
F5046223257
sg189
F2950391812
sg190
F1533534864
sg191
F4344660740
sg192
Nsg193
F974881000000
sg194
Nsg195
F128213000000
sg196
Nsg197
Nsg198
Nsg199
F5597795401
sg200
Nsg201
Nsg202
F5100368061
sg203
Nsg204
F152698080.40000001
sg205
F13474390993
sg206
Nsg207
F4306227078
sg208
Nsg209
F2071363004
sg210
F610020000000
sg211
F712348957.10000002
sg212
Nsg213
F93366150439
sg214
F9845424747
sg215
Nsg216
NssI1993
(dp249
g3
F330484000000
sg4
Nsg5
Nsg6
Nsg7
F13773395189
sg8
Nsg9
F102486000000
sg10
F13857616863
sg11
Nsg12
F1899263527
sg13
F156509000000
sg14
F10489435752
sg15
F2087029576
sg16
F3443024216
sg17
F7675978245
sg18
F63356401155
sg19
F1268060000000
sg20
Nsg21
Nsg22
Nsg23
F12162694325
sg24
F22112274543
sg25
Nsg26
F10524777635
sg27
F450573000000
sg28
F5732446378
sg29
F469896068
sg30
F1830574110
sg31
F169275596.90000001
sg32
Nsg33
Nsg34
F79146229569
sg35
Nsg36
F8793872146
sg37
F5595453355
sg38
F2097893264
sg39
Nsg40
F32667450875
sg41
F6482765148
sg42
Nsg43
Nsg44
F20243902193
sg45
Nsg46
Nsg47
F13072367041
sg48
F595913000000
sg49
F5581729874
sg50
F905549280.20000005
sg51
F13677088766
sg52
Nsg53
F196350000000
sg54
Nsg55
Nsg56
F56844572982
sg57
F1467041336
sg58
Nsg59
F243803000000
sg60
Nsg61
Nsg62
F620533000000
sg63
F14026525537
sg64
Nsg65
Nsg66
Nsg67
F50024953879
sg68
F192885922.30000001
sg69
Nsg70
F284079834.5
sg71
F43315338432
sg72
F9833122469
sg73
Nsg74
F3103490772
sg75
Nsg76
F12471486620
sg77
Nsg78
F1653680439
sg79
F503583000000
sg80
F3214959777
sg81
Nsg82
F18695384063
sg83
F77831300978
sg84
F2755227036
sg85
F196866534.5
sg86
F40504773609
sg87
F5285906770
sg88
Nsg89
F1281520992
sg90
F2918150940
sg91
Nsg92
F17816212913
sg93
F2667291866
sg94
Nsg95
Nsg96
F26369569548
sg97
F4483600000000
sg98
F52276210764
sg99
F2097283858
sg100
F83183166763
sg101
F89213046206
sg102
F236417206.30000001
sg103
F4457612487
sg104
F1999219945
sg105
Nsg106
F39694774583
sg107
F94264216789
sg108
Nsg109
F4305289034
sg110
F5872060762
sg111
Nsg112
F51466414432
sg113
F2715751343
sg114
Nsg115
F312667000000
sg116
Nsg117
Nsg118
F5573188777
sg119
F11347497233
sg120
F6293213058
sg121
F312673409.39999998
sg122
Nsg123
F28567529163
sg124
Nsg125
Nsg126
Nsg127
F53367635240
sg128
F191685000000
sg129
F32278507923
sg130
F14189858345
sg131
Nsg132
F131782067.7
sg133
Nsg134
Nsg135
Nsg136
F110111000000
sg137
Nsg138
F7152700392
sg139
F489245125.60000002
sg140
Nsg141
Nsg142
F52734400331
sg143
F67047080203
sg144
Nsg145
F76869647326
sg146
F28635767940
sg147
F12984170631
sg148
F975621952
sg149
F381446768.69999999
sg150
F112117000000
sg151
F4472011361
sg152
F215258034
sg153
F12391966567
sg154
Nsg155
F1861264546
sg156
F4319632221
sg157
Nsg158
F81685363539
sg159
F392813000000
sg160
F65573985735
sg161
Nsg162
Nsg163
F2675644029
sg164
Nsg165
F331336000000
sg166
F79168135544
sg167
F1551288246
sg168
F1071906332
sg169
F1454735606
sg170
F6348968147
sg171
F601662000000
sg172
Nsg173
Nsg174
F18323384034
sg175
F7760785299
sg176
F24663628352
sg177
F2628805771
sg178
F150768000000
sg179
F1983503100
sg180
F565405963
sg181
Nsg182
Nsg183
F110375000000
sg184
F35966601788
sg185
F143200000000
sg186
F2808969949
sg187
F4929465873
sg188
F5459149898
sg189
F2761134290
sg190
F1864440464
sg191
F4706586639
sg192
Nsg193
F1001040000000
sg194
F39053849988
sg195
F138406000000
sg196
Nsg197
Nsg198
Nsg199
F5367861935
sg200
Nsg201
Nsg202
F5573286786
sg203
Nsg204
F145236809.30000001
sg205
F14340220752
sg206
Nsg207
F3615955040
sg208
Nsg209
F2074577419
sg210
F641161000000
sg211
F834338381.20000005
sg212
Nsg213
F94657259454
sg214
F10659015830
sg215
Nsg216
NssI1994
(dp250
g3
F347530000000
sg4
Nsg5
Nsg6
Nsg7
F11131065929
sg8
F4949761206
sg9
F105735000000
sg10
F13526410417
sg11
Nsg12
F1737999818
sg13
F168071000000
sg14
F11021150311
sg15
F2182795631
sg16
F2661938691
sg17
F7873024540
sg18
F65385321485
sg19
F1323680000000
sg20
Nsg21
Nsg22
Nsg23
F12904590680
sg24
F24155194484
sg25
Nsg26
F10238684735
sg27
F453483000000
sg28
F5972200788
sg29
F497823634.39999998
sg30
F1764969361
sg31
F191141545.5
sg32
Nsg33
Nsg34
F83334802644
sg35
Nsg36
F8995141536
sg37
F5630176721
sg38
F2137736053
sg39
Nsg40
F35495577329
sg41
F6671824492
sg42
Nsg43
Nsg44
F20906122850
sg45
Nsg46
Nsg47
F13864032364
sg48
F644725000000
sg49
F4579824868
sg50
F903590037.20000005
sg51
F12936942041
sg52
Nsg53
F189611000000
sg54
Nsg55
Nsg56
F59289852747
sg57
F852462373.89999998
sg58
Nsg59
F269780000000
sg60
Nsg61
Nsg62
F642946000000
sg63
F14321190459
sg64
Nsg65
Nsg66
Nsg67
F55814789383
sg68
F208678346.19999999
sg69
Nsg70
F255117233.5
sg71
F45709448616
sg72
F10456850584
sg73
Nsg74
F3034790358
sg75
Nsg76
F10638946443
sg77
Nsg78
F1709005600
sg79
F553567000000
sg80
F3247377113
sg81
Nsg82
F19604197745
sg83
F66005861893
sg84
F2781480601
sg85
F263791068.5
sg86
F42330038255
sg87
F5163373584
sg88
Nsg89
F1250585286
sg90
F3139424807
sg91
Nsg92
F15029954463
sg93
F2883885125
sg94
Nsg95
Nsg96
F24447732638
sg97
F4750800000000
sg98
F56095563204
sg99
F3875261338
sg100
F89553685871
sg101
F95111643816
sg102
F253225358.40000001
sg103
F4767844863
sg104
F1897912980
sg105
F2450173653
sg106
F44435719927
sg107
F98295051133
sg108
Nsg109
F4331264850
sg110
F6065474884
sg111
Nsg112
F52749279943
sg113
F2958439043
sg114
Nsg115
F362532000000
sg116
Nsg117
Nsg118
F5793398709
sg119
F12288622042
sg120
F6680943902
sg121
F357960066.30000001
sg122
Nsg123
F30429864907
sg124
Nsg125
Nsg126
Nsg127
F58244844281
sg128
F199796000000
sg129
F33205115616
sg130
F15271343624
sg131
Nsg132
F158096049.19999999
sg133
Nsg134
F50743558486
sg135
Nsg136
F115055000000
sg137
Nsg138
F7726920874
sg139
F527594562.69999999
sg140
Nsg141
F8084125296
sg142
F57236910710
sg143
F71190870401
sg144
F2314553835
sg145
F79287029720
sg146
F32360626754
sg147
F12326939534
sg148
F816173138.5
sg149
F447434550.69999999
sg150
F123954000000
sg151
F5305278860
sg152
F192935996.5
sg153
F9811858000
sg154
Nsg155
F2164558091
sg156
F4154801669
sg157
Nsg158
F85109874507
sg159
F419282000000
sg160
F71355029697
sg161
Nsg162
Nsg163
Nsg164
Nsg165
F341830000000
sg166
F96103026901
sg167
F1555128138
sg168
F1135221794
sg169
F1464640764
sg170
F6620488739
sg171
F623302000000
sg172
Nsg173
Nsg174
F22952214896
sg175
F8625199677
sg176
F27725732209
sg177
F2807388615
sg178
F156880000000
sg179
F2166188550
sg180
F689628286.5
sg181
Nsg182
Nsg183
F118977000000
sg184
F40308471337
sg185
F160073000000
sg186
F2949290940
sg187
F5289363701
sg188
F5585436499
sg189
F3444816520
sg190
F1308237712
sg191
F4229565698
sg192
Nsg193
F1040460000000
sg194
F31957520402
sg195
F148191000000
sg196
Nsg197
Nsg198
Nsg199
F6312396528
sg200
Nsg201
F722598233.20000005
sg202
F5782159027
sg203
Nsg204
F158372066.69999999
sg205
F15138093779
sg206
Nsg207
F4231621035
sg208
Nsg209
F2189504094
sg210
F673751000000
sg211
F924195865.10000002
sg212
Nsg213
F98517850205
sg214
F9299924204
sg215
Nsg216
NssI1995
(dp251
g3
F362525000000
sg4
Nsg5
Nsg6
Nsg7
F12195713893
sg8
F6076182452
sg9
F108772000000
sg10
F14734279109
sg11
Nsg12
F2149117156
sg13
F165581000000
sg14
F11718636352
sg15
F2407865283
sg16
F3161343384
sg17
F7816508999
sg18
F66712023670
sg19
F1378380000000
sg20
Nsg21
Nsg22
Nsg23
F14727540265
sg24
F25980657937
sg25
Nsg26
F11616136290
sg27
F375868000000
sg28
F6223978273
sg29
F529164758.69999999
sg30
F1539247096
sg31
F186978811.90000001
sg32
Nsg33
Nsg34
F92843950082
sg35
Nsg36
F9514064178
sg37
F6057278845
sg38
F2046163312
sg39
Nsg40
F37853938570
sg41
F7376514003
sg42
Nsg43
Nsg44
F22521731301
sg45
Nsg46
Nsg47
F13925290073
sg48
F693091000000
sg49
F5444503524
sg50
F898634162.29999995
sg51
F16875528466
sg52
Nsg53
F203194000000
sg54
Nsg55
Nsg56
F62417991458
sg57
F1522969348
sg58
Nsg59
F303478000000
sg60
Nsg61
Nsg62
F668246000000
sg63
F14779190323
sg64
Nsg65
Nsg66
Nsg67
F62276117769
sg68
F220482780.69999999
sg69
Nsg70
F282138745.30000001
sg71
F48408487959
sg72
F11798294044
sg73
Nsg74
F3217727796
sg75
Nsg76
F11097828669
sg77
Nsg78
F1836779792
sg79
F632269000000
sg80
F3801730642
sg81
Nsg82
F20747237264
sg83
F73313763883
sg84
F2975028121
sg85
F281978376.39999998
sg86
F45222376459
sg87
F5183696563
sg88
Nsg89
F1310331556
sg90
F3363133853
sg91
Nsg92
F12960408672
sg93
F3342398937
sg94
Nsg95
Nsg96
F22930475697
sg97
F4987300000000
sg98
F67323719649
sg99
Nsg100
F92588039953
sg101
F103507000000
sg102
F210395523.69999999
sg103
F6080324123
sg104
F1867880336
sg105
F2892628571
sg106
F50036995575
sg107
F101191000000
sg108
F33107277237
sg109
F4101534113
sg110
F7434367364
sg111
F2599157693
sg112
F49954811096
sg113
F3037284966
sg114
Nsg115
F475105000000
sg116
Nsg117
Nsg118
F5847642612
sg119
F12901347379
sg120
F6960119357
sg121
F375197214
sg122
Nsg123
F32171075166
sg124
Nsg125
Nsg126
Nsg127
F63035467260
sg128
F211758000000
sg129
F34828094206
sg130
F16820159714
sg131
Nsg132
F174977771.30000001
sg133
Nsg134
F57369935378
sg135
Nsg136
F119438000000
sg137
Nsg138
F7592353361
sg139
F570120325.39999998
sg140
Nsg141
F6255701807
sg142
F59458345633
sg143
F76934127496
sg144
F2624624326
sg145
F81563385681
sg146
F32135498251
sg147
F20234871970
sg148
F1887687929
sg149
F509338497.80000001
sg150
F136841000000
sg151
F5047555088
sg152
F210572593.5
sg153
F10434122576
sg154
Nsg155
F2172834676
sg156
F4352206784
sg157
Nsg158
F87959445772
sg159
F387790000000
sg160
F74506337950
sg161
Nsg162
Nsg163
F1946032326
sg164
Nsg165
F355386000000
sg166
F101759000000
sg167
F1358523678
sg168
F1112336746
sg169
F1477961221
sg170
F6750247709
sg171
F647222000000
sg172
Nsg173
Nsg174
F31201571088
sg175
F8297418466
sg176
F29319273238
sg177
F3341966988
sg178
F164626000000
sg179
F2263778696
sg180
F794422847.89999998
sg181
Nsg182
Nsg183
F118912000000
sg184
F44632318829
sg185
F184498000000
sg186
F3079754717
sg187
F5338820053
sg188
F5859522886
sg189
F3191135773
sg190
F1685795437
sg191
F4337245443
sg192
Nsg193
F1083050000000
sg194
F26088903596
sg195
F156125000000
sg196
Nsg197
Nsg198
Nsg199
F7089381948
sg200
Nsg201
F696811707.39999998
sg202
F6037600972
sg203
Nsg204
F153242504.19999999
sg205
F16036811705
sg206
Nsg207
F3681542715
sg208
Nsg209
F2255970666
sg210
F701844000000
sg211
F827630385.60000002
sg212
Nsg213
F103140000000
sg214
F10125179417
sg215
Nsg216
NssI1996
(dp252
g3
F379961000000
sg4
Nsg5
Nsg6
Nsg7
F13280159678
sg8
F6582400317
sg9
F113552000000
sg10
F18560893043
sg11
Nsg12
F2458709001
sg13
F181937000000
sg14
F12379783651
sg15
F2632573500
sg16
F3652749248
sg17
F7861712268
sg18
F70333746317
sg19
F1443200000000
sg20
Nsg21
Nsg22
Nsg23
F15569567236
sg24
F27439767735
sg25
Nsg26
F14005279483
sg27
F365606000000
sg28
F6816364150
sg29
F554542261.70000005
sg30
F1785542314
sg31
F202127263.09999999
sg32
Nsg33
Nsg34
F99003969702
sg35
Nsg36
F10003587784
sg37
F5613312368
sg38
F2333967366
sg39
Nsg40
F40222870910
sg41
F6999588831
sg42
Nsg43
Nsg44
F24987441154
sg45
Nsg46
Nsg47
F14760441888
sg48
F767557000000
sg49
F6147620802
sg50
F978040490.79999995
sg51
F25914175182
sg52
Nsg53
F225514000000
sg54
Nsg55
Nsg56
F67298551204
sg57
F1809874510
sg58
Nsg59
F328991000000
sg60
Nsg61
Nsg62
F694787000000
sg63
F18199904178
sg64
Nsg65
Nsg66
Nsg67
F65989450139
sg68
F230953116.09999999
sg69
Nsg70
F261906386.09999999
sg71
F53162329945
sg72
F13859513205
sg73
F5820317934
sg74
F3724518379
sg75
Nsg76
F11745349426
sg77
Nsg78
F2161899831
sg79
F719092000000
sg80
F3945677976
sg81
Nsg82
F22166225417
sg83
F65972297762
sg84
F3246263597
sg85
F286907944.89999998
sg86
F47673927308
sg87
F5564632023
sg88
Nsg89
F1452359680
sg90
F3611553255
sg91
Nsg92
F14017952743
sg93
F3509518153
sg94
Nsg95
Nsg96
F21934729241
sg97
F5273600000000
sg98
F73532752464
sg99
Nsg100
F103311000000
sg101
F111274000000
sg102
F222077520.5
sg103
F6435188712
sg104
F2137973745
sg105
F2689339857
sg106
F54520058164
sg107
F106371000000
sg108
F38758173080
sg109
F4910201036
sg110
F7521399809
sg111
F3216385325
sg112
F49896442191
sg113
F3210018216
sg114
Nsg115
F523138000000
sg116
Nsg117
Nsg118
F7891156353
sg119
F13763025412
sg120
F7356295836
sg121
F467487164
sg122
Nsg123
F35080307575
sg124
Nsg125
Nsg126
Nsg127
F69329822411
sg128
F225562000000
sg129
F37302765384
sg130
F17296094070
sg131
Nsg132
F209263895.19999999
sg133
Nsg134
F64609035423
sg135
Nsg136
F123099000000
sg137
Nsg138
F6547834189
sg139
F592134542.60000002
sg140
Nsg141
F7596631221
sg142
F61955328564
sg143
F83224683907
sg144
F3127243813
sg145
F85809873035
sg146
F35868799387
sg147
F21097266707
sg148
F1636228048
sg149
F522955351.80000001
sg150
F148322000000
sg151
F5404804347
sg152
F253965823.5
sg153
F10128460216
sg154
Nsg155
F2085341109
sg156
F4961576664
sg157
Nsg158
F91576981843
sg159
F405014000000
sg160
F78785168979
sg161
Nsg162
Nsg163
F2268634957
sg164
Nsg165
F369438000000
sg166
F102841000000
sg167
F1070173023
sg168
F1180127420
sg169
F1644459848
sg170
F6532415635
sg171
F664883000000
sg172
Nsg173
Nsg174
F20491170647
sg175
F9031068320
sg176
F31985572453
sg177
F3293115510
sg178
F176223000000
sg179
F2413127006
sg180
F911737829.70000005
sg181
Nsg182
Nsg183
F122857000000
sg184
F48129676446
sg185
F208708000000
sg186
F3268079925
sg187
F5330843297
sg188
F6300866533
sg189
F3427283552
sg190
F2149105331
sg191
F4708742218
sg192
Nsg193
F1117800000000
sg194
F25491862242
sg195
F173775000000
sg196
Nsg197
Nsg198
Nsg199
F8041559532
sg200
Nsg201
F695692181.89999998
sg202
F6485320120
sg203
Nsg204
F195366236.30000001
sg205
F17234411140
sg206
Nsg207
F3824888198
sg208
Nsg209
F2357705326
sg210
F758851000000
sg211
F1043139629
sg212
Nsg213
F108378000000
sg214
F10769747659
sg215
Nsg216
NssI1997
(dp253
g3
F404950000000
sg4
Nsg5
Nsg6
Nsg7
F14364670109
sg8
F6339742137
sg9
F118633000000
sg10
F19981581368
sg11
Nsg12
F2381226618
sg13
F201372000000
sg14
F13349231722
sg15
F3498190743
sg16
F3766846748
sg17
F8740433587
sg18
F72475194373
sg19
F1481060000000
sg20
Nsg21
Nsg22
Nsg23
F16424793286
sg24
F29029039228
sg25
Nsg26
F14504052526
sg27
F390273000000
sg28
F7154101044
sg29
F579880631.10000002
sg30
Nsg31
F208474458.59999999
sg32
Nsg33
Nsg34
F107041000000
sg35
Nsg36
F11179422043
sg37
F6269017940
sg38
F2107949148
sg39
Nsg40
F41937978691
sg41
F7043209766
sg42
Nsg43
Nsg44
F27564873518
sg45
Nsg46
Nsg47
F18114826074
sg48
F803971000000
sg49
F6312939035
sg50
Nsg51
F27052533019
sg52
Nsg53
F250146000000
sg54
Nsg55
Nsg56
F70050353017
sg57
F2026246328
sg58
F940362512.20000005
sg59
F345481000000
sg60
Nsg61
Nsg62
F716476000000
sg63
F19452893495
sg64
Nsg65
Nsg66
Nsg67
F69947770144
sg68
F248539922.40000001
sg69
Nsg70
F365716210.10000002
sg71
F55457942339
sg72
F13879329929
sg73
F6590473031
sg74
F4022317034
sg75
Nsg76
F12699743558
sg77
Nsg78
F2658530361
sg79
F778327000000
sg80
F4436872098
sg81
Nsg82
F24129186331
sg83
F62209090978
sg84
F3365557876
sg85
F275595107.89999998
sg86
F50489554221
sg87
F6758635940
sg88
Nsg89
F1472672017
sg90
F3828023453
sg91
Nsg92
F15911763744
sg93
F3669224807
sg94
Nsg95
Nsg96
F21114415714
sg97
F5570700000000
sg98
F75507599031
sg99
Nsg100
F117483000000
sg101
F117613000000
sg102
F322189566.80000001
sg103
F6734946139
sg104
F2338559070
sg105
F2724218812
sg106
F59461050732
sg107
F108829000000
sg108
F42714902906
sg109
F5351592301
sg110
F7228232721
sg111
F2935787722
sg112
F52035003402
sg113
F3280138139
sg114
Nsg115
F559002000000
sg116
Nsg117
Nsg118
F8458362282
sg119
F14804338621
sg120
F7614523853
sg121
F509416221.5
sg122
Nsg123
F37363064804
sg124
Nsg125
Nsg126
Nsg127
F72047622067
sg128
F236077000000
sg129
F38105503255
sg130
F18108124088
sg131
Nsg132
F189296581
sg133
Nsg134
F69914373970
sg135
Nsg136
F127387000000
sg137
Nsg138
F6455438174
sg139
F623167589.10000002
sg140
Nsg141
F8281089674
sg142
F65559420908
sg143
F89087025880
sg144
F3760322661
sg145
F90111285723
sg146
F35044658734
sg147
F24271519364
sg148
F1431102403
sg149
F491233231.80000001
sg150
F149913000000
sg151
F5813775072
sg152
F275025599.39999998
sg153
F11551180043
sg154
Nsg155
F2308957772
sg156
F5744568439
sg157
Nsg158
F95447503252
sg159
F439276000000
sg160
F84075312443
sg161
Nsg162
Nsg163
F2733335323
sg164
Nsg165
F393046000000
sg166
F106615000000
sg167
F1088389341
sg168
F1184093180
sg169
F1846309905
sg170
F7401370462
sg171
F703944000000
sg172
Nsg173
Nsg174
F22160858817
sg175
F10113782762
sg176
F34595121278
sg177
F3539434382
sg178
F186130000000
sg179
F2480062865
sg180
F957447173.89999998
sg181
Nsg182
Nsg183
F133225000000
sg184
F50623443551
sg185
F234406000000
sg186
F3570671251
sg187
F5362813570
sg188
F6488100696
sg189
F4594059140
sg190
F2538630405
sg191
F5649847297
sg192
Nsg193
F1145020000000
sg194
F27498517458
sg195
F190487000000
sg196
Nsg197
Nsg198
Nsg199
F8646284751
sg200
Nsg201
F770760071.89999998
sg202
F7107984017
sg203
Nsg204
F394026295.69999999
sg205
F20657948317
sg206
Nsg207
F4698050115
sg208
F22126507421
sg209
F2533825740
sg210
F809512000000
sg211
F906796146.39999998
sg212
Nsg213
F112825000000
sg214
F11235985502
sg215
Nsg216
NssI1998
(dp254
g3
F420097000000
sg4
Nsg5
Nsg6
Nsg7
F15196066890
sg8
F6858590870
sg9
F121616000000
sg10
F18127013904
sg11
Nsg12
F2496365107
sg13
F204816000000
sg14
F14221440142
sg15
F3858102081
sg16
F4489320438
sg17
F9035272955
sg18
F71035671334
sg19
F1482110000000
sg20
Nsg21
Nsg22
Nsg23
F17086368199
sg24
F31077426750
sg25
Nsg26
F15843337112
sg27
F381436000000
sg28
F7944969623
sg29
F599915595.10000002
sg30
F1314730029
sg31
F210177069.30000001
sg32
Nsg33
Nsg34
F108604000000
sg35
Nsg36
F12831256397
sg37
F5713148995
sg38
F2485890983
sg39
Nsg40
F43488321511
sg41
F8181209415
sg42
Nsg43
Nsg44
F29594206248
sg45
Nsg46
Nsg47
F19411916068
sg48
F825638000000
sg49
F7562547550
sg50
Nsg51
F28621453586
sg52
Nsg53
F328470000000
sg54
Nsg55
Nsg56
F70989262649
sg57
F1991854583
sg58
F860005604.10000002
sg59
F303118000000
sg60
Nsg61
Nsg62
F751873000000
sg63
F20393484648
sg64
Nsg65
Nsg66
Nsg67
F70783044486
sg68
F358007545.10000002
sg69
Nsg70
F420077541.89999998
sg71
F57459286305
sg72
F15290029379
sg73
F7262689127
sg74
F4217203602
sg75
Nsg76
F13505879125
sg77
Nsg78
F2768065855
sg79
F846967000000
sg80
F4762620690
sg81
Nsg82
F26039089522
sg83
F65829651776
sg84
F3565472811
sg85
F317601459.60000002
sg86
F53619841035
sg87
F6383966789
sg88
Nsg89
F1580895332
sg90
F4122284151
sg91
Nsg92
F18138815231
sg93
F3783557235
sg94
Nsg95
Nsg96
F22952269962
sg97
F5918500000000
sg98
F81422594777
sg99
Nsg100
F123367000000
sg101
F121791000000
sg102
F334727914.39999998
sg103
F7204655060
sg104
F2147793866
sg105
F2720013623
sg106
F52842822473
sg107
F113095000000
sg108
F45979844392
sg109
F6435267386
sg110
F9346366237
sg111
F3849153748
sg112
F55141587972
sg113
F3676027354
sg114
Nsg115
F568774000000
sg116
Nsg117
Nsg118
F10003515462
sg119
F15586435263
sg120
F8318221133
sg121
F605761838.79999995
sg122
Nsg123
F41289273493
sg124
Nsg125
Nsg126
Nsg127
F71538270855
sg128
F249567000000
sg129
F40130265597
sg130
F18792495595
sg131
Nsg132
F193032003.5
sg133
Nsg134
F73621863530
sg135
Nsg136
F129016000000
sg137
Nsg138
F6989041689
sg139
F685075917.89999998
sg140
Nsg141
F7381425103
sg142
F68658412439
sg143
F100552000000
sg144
F3883813129
sg145
F93292904778
sg146
F39055949668
sg147
F24434760326
sg148
F1459604078
sg149
F411733626.60000002
sg150
F136521000000
sg151
F6114386019
sg152
F323702605.30000001
sg153
F12641061955
sg154
Nsg155
F2682075422
sg156
F6030971691
sg157
Nsg158
F99054885167
sg159
F467490000000
sg160
F79237997539
sg161
Nsg162
Nsg163
F2855826415
sg164
F296551569.19999999
sg165
F421268000000
sg166
F106531000000
sg167
F1228282986
sg168
F1137374997
sg169
F1985676003
sg170
F7765026566
sg171
F745525000000
sg172
Nsg173
Nsg174
F23483771773
sg175
F9873888326
sg176
F33395063583
sg177
F3700173768
sg178
F200259000000
sg179
F2476865793
sg180
F960248909.70000005
sg181
Nsg182
Nsg183
F147690000000
sg184
F53988029436
sg185
F251473000000
sg186
F3884445025
sg187
F5391876868
sg188
F7110094109
sg189
F4396678434
sg190
F2291993261
sg191
F5616605967
sg192
Nsg193
F1165270000000
sg194
F28071538583
sg195
F202018000000
sg196
Nsg197
Nsg198
Nsg199
F8790917175
sg200
Nsg201
F810737922.5
sg202
F7520865221
sg203
Nsg204
F442601275.5
sg205
F22054891210
sg206
Nsg207
F4986080800
sg208
F24876460197
sg209
F2754200559
sg210
F843870000000
sg211
F1062297168
sg212
Nsg213
F116019000000
sg214
F11110742771
sg215
Nsg216
NssI1999
(dp255
g3
F443092000000
sg4
Nsg5
Nsg6
Nsg7
F16070425414
sg8
F7224903036
sg9
F123158000000
sg10
F17748689975
sg11
Nsg12
F2676683430
sg13
F200532000000
sg14
F14977288006
sg15
F4196120615
sg16
F5931351226
sg17
F10546125273
sg18
F73815303507
sg19
F1521120000000
sg20
Nsg21
Nsg22
Nsg23
F18471150696
sg24
F32796417490
sg25
Nsg26
F16289538432
sg27
F376342000000
sg28
F8199216754
sg29
F630136702.39999998
sg30
F1319847703
sg31
F220202691
sg32
Nsg33
Nsg34
F122818000000
sg35
Nsg36
F14080518581
sg37
F5829721856
sg38
F2581378045
sg39
Nsg40
F45616464296
sg41
F8638484064
sg42
Nsg43
Nsg44
F30148633892
sg45
Nsg46
Nsg47
F19556932209
sg48
F907129000000
sg49
F8780761412
sg50
F1561288510
sg51
F29820148278
sg52
Nsg53
F321846000000
sg54
Nsg55
Nsg56
F74884576146
sg57
F2129008720
sg58
F699389534.79999995
sg59
F344954000000
sg60
Nsg61
Nsg62
F786731000000
sg63
F23351363872
sg64
Nsg65
Nsg66
Nsg67
F72356317036
sg68
F385941707
sg69
Nsg70
F429743018.80000001
sg71
F60187347887
sg72
F15354750044
sg73
F8197796075
sg74
F4645607541
sg75
Nsg76
F14259973951
sg77
Nsg78
F2958868315
sg79
F938079000000
sg80
F4806889574
sg81
Nsg82
F27530046452
sg83
F70148932742
sg84
F3832534775
sg85
F308918938.5
sg86
F56349983583
sg87
F6703320752
sg88
Nsg89
F1601550091
sg90
F4331316521
sg91
Nsg92
F20570665455
sg93
F4171026835
sg94
Nsg95
Nsg96
F25492218340
sg97
F6342800000000
sg98
F82359678921
sg99
Nsg100
F128071000000
sg101
F129425000000
sg102
F310423431.10000002
sg103
F7535473466
sg104
F2171656114
sg105
F2742060317
sg106
F55832726828
sg107
F116752000000
sg108
F48413414771
sg109
F7695521621
sg110
F9457223596
sg111
F3601783617
sg112
F59214509928
sg113
F3767226755
sg114
Nsg115
F606541000000
sg116
Nsg117
Nsg118
F10639688813
sg119
F16811216470
sg120
F8978710053
sg121
F661822310.60000002
sg122
Nsg123
F44756514008
sg124
Nsg125
Nsg126
Nsg127
F74263210182
sg128
F266378000000
sg129
F42877122941
sg130
F20042709910
sg131
Nsg132
F236098490.90000001
sg133
Nsg134
F73840315138
sg135
Nsg136
F133432000000
sg137
Nsg138
F7141517889
sg139
F753378855.29999995
sg140
Nsg141
F6891205521
sg142
F68966457171
sg143
F106976000000
sg144
F3816702092
sg145
F101741000000
sg146
F39885159162
sg147
F24073166219
sg148
F1583652029
sg149
F437177839.10000002
sg150
F144098000000
sg151
F6536179568
sg152
F282304715.80000001
sg153
F14051449690
sg154
Nsg155
F2826421364
sg156
F6045521055
sg157
Nsg158
F105972000000
sg159
F495472000000
sg160
F81111753683
sg161
Nsg162
Nsg163
F2977805485
sg164
F331225419.89999998
sg165
F451750000000
sg166
F103516000000
sg167
F1331257596
sg168
F1224588040
sg169
F2228534438
sg170
F8334551787
sg171
F777234000000
sg172
Nsg173
Nsg174
F24870918244
sg175
F10751846564
sg176
F36763016764
sg177
F3984127170
sg178
F214496000000
sg179
F2597986413
sg180
F840264924.79999995
sg181
Nsg182
Nsg183
F156635000000
sg184
F56985209488
sg185
F267717000000
sg186
F4362084923
sg187
F5815032455
sg188
F7444492716
sg189
F4245077892
sg190
F2629480048
sg191
F6469683217
sg192
Nsg193
F1218530000000
sg194
F30452967156
sg195
F216064000000
sg196
Nsg197
Nsg198
Nsg199
F9289250143
sg200
Nsg201
F874607263.29999995
sg202
F7797500602
sg203
Nsg204
Nsg205
F23846646477
sg206
F6318220447
sg207
F6279638638
sg208
F23910487874
sg209
F3243508030
sg210
F893467000000
sg211
F1071276807
sg212
Nsg213
F119480000000
sg214
F11591208241
sg215
Nsg216
NssI2000
(dp256
g3
F468901000000
sg4
Nsg5
Nsg6
F4899226243
sg7
F16998585182
sg8
F7835713909
sg9
F127298000000
sg10
F19770269887
sg11
Nsg12
F2671157465
sg13
F211707000000
sg14
F15862544032
sg15
F4431398835
sg16
F6160939848
sg17
F11297759345
sg18
F78984588965
sg19
F1603230000000
sg20
Nsg21
Nsg22
Nsg23
F18960379722
sg24
F35093253916
sg25
Nsg26
F16529753849
sg27
F446097000000
sg28
F9750509249
sg29
F645881869.5
sg30
F1386380472
sg31
F329935425
sg32
Nsg33
Nsg34
F157757000000
sg35
F9483349796
sg36
F14960357476
sg37
F6429890802
sg38
F2509318269
sg39
Nsg40
F46554315292
sg41
F9611838189
sg42
Nsg43
Nsg44
F31375741126
sg45
Nsg46
Nsg47
F19745108753
sg48
F966268000000
sg49
F10309397777
sg50
F1555773651
sg51
F29802126287
sg52
F3074001540
sg53
F365935000000
sg54
Nsg55
Nsg56
F81570499536
sg57
F2287486568
sg58
F764348610.70000005
sg59
F400818000000
sg60
Nsg61
Nsg62
F855043000000
sg63
F25502000214
sg64
Nsg65
Nsg66
Nsg67
F77744891541
sg68
F379230319.39999998
sg69
Nsg70
F426517448.39999998
sg71
F64088730635
sg72
F16150131722
sg73
F7875807252
sg74
F4875236851
sg75
Nsg76
F15361915713
sg77
Nsg78
F2849213470
sg79
F1058070000000
sg80
F5268960868
sg81
Nsg82
F30087018648
sg83
F70051900352
sg84
F4086761742
sg85
F327392296.39999998
sg86
F60466000412
sg87
F6673945002
sg88
Nsg89
F1765545620
sg90
F4623350532
sg91
Nsg92
F23188955126
sg93
F4686412548
sg94
Nsg95
Nsg96
F27782286957
sg97
F6830400000000
sg98
F83836869922
sg99
Nsg100
F144131000000
sg101
F143446000000
sg102
F383494466.30000001
sg103
F8298495705
sg104
F2111084815
sg105
F2881734822
sg106
F70884826974
sg107
F125619000000
sg108
F54434401909
sg109
F6994125945
sg110
F10665414598
sg111
F3557944274
sg112
F62816730383
sg113
F3998682443
sg114
Nsg115
F644864000000
sg116
Nsg117
Nsg118
F10557824584
sg119
F17665223127
sg120
F9879236827
sg121
F550870197.5
sg122
Nsg123
F50140363420
sg124
Nsg125
Nsg126
F31576541633
sg127
F77070376023
sg128
F281123000000
sg129
F45325386554
sg130
F21853715036
sg131
Nsg132
F294360182.10000002
sg133
Nsg134
F78193956332
sg135
Nsg136
F147468000000
sg137
Nsg138
F7581101870
sg139
F841327458.89999998
sg140
Nsg141
F8139382434
sg142
F71061712380
sg143
F116527000000
sg144
F4353757776
sg145
F109148000000
sg146
F41478128452
sg147
F25281014051
sg148
F2134342420
sg149
F483124150.80000001
sg150
F156111000000
sg151
F7655039976
sg152
F464229265.19999999
sg153
F15936946730
sg154
Nsg155
F2733786099
sg156
F6675727609
sg157
Nsg158
F115625000000
sg159
F552632000000
sg160
F88418907236
sg161
Nsg162
F683498768.70000005
sg163
F3059804166
sg164
F509001944
sg165
F494704000000
sg166
F145553000000
sg167
F1595404874
sg168
F1339667717
sg169
F2368366602
sg170
F8411829407
sg171
F824059000000
sg172
Nsg173
Nsg174
F24997324645
sg175
F11787745091
sg176
F42306135597
sg177
F4217610147
sg178
F235793000000
sg179
F2675848511
sg180
F856353195.60000002
sg181
Nsg182
Nsg183
F173300000000
sg184
F68069105296
sg185
F281143000000
sg186
F4437463623
sg187
F6896542952
sg188
F8065602716
sg189
F3307996727
sg190
F2603164572
sg191
F7073272140
sg192
Nsg193
F1254570000000
sg194
F30651031432
sg195
F230205000000
sg196
Nsg197
Nsg198
Nsg199
F10106383399
sg200
Nsg201
F924728729.10000002
sg202
F10302130879
sg203
Nsg204
F584925910.10000002
sg205
F25705370884
sg206
F6979412681
sg207
F6282320182
sg208
F29391051285
sg209
F3651526812
sg210
F979048000000
sg211
F1219742585
sg212
Nsg213
F125939000000
sg214
F12253663003
sg215
Nsg216
F384000055.80000001
ssI2001
(dp257
g3
F488668000000
sg4
Nsg5
Nsg6
F5091647982
sg7
F18353068139
sg8
F8588146425
sg9
F132844000000
sg10
F23305191257
sg11
Nsg12
F2758661374
sg13
F207116000000
sg14
F16397252564
sg15
F4859701485
sg16
F6683685483
sg17
F12107890405
sg18
F82583631946
sg19
F1660460000000
sg20
Nsg21
Nsg22
Nsg23
F19693303879
sg24
F32815111303
sg25
Nsg26
F17299089437
sg27
F496880000000
sg28
F10508999268
sg29
F630628902.70000005
sg30
F1828425602
sg31
F374781457.80000001
sg32
F1074956336
sg33
Nsg34
F175099000000
sg35
F10955954093
sg36
F15642773062
sg37
F7723178302
sg38
F2767983057
sg39
Nsg40
F48677296020
sg41
F10002889427
sg42
Nsg43
Nsg44
F35459228416
sg45
Nsg46
Nsg47
F19450061020
sg48
F1043430000000
sg49
F11100995126
sg50
F2071465340
sg51
F31049163646
sg52
F3149767214
sg53
F352408000000
sg54
Nsg55
Nsg56
F87878510145
sg57
F2380564211
sg58
F787616237.39999998
sg59
F431552000000
sg60
Nsg61
Nsg62
F916610000000
sg63
F26852035761
sg64
Nsg65
Nsg66
Nsg67
F80973713742
sg68
F404088673.60000002
sg69
Nsg70
F447730499.89999998
sg71
F66026617568
sg72
F16437966580
sg73
F7220237165
sg74
F5185591010
sg75
Nsg76
F16273418395
sg77
Nsg78
F3042056339
sg79
F1164520000000
sg80
F5778183274
sg81
Nsg82
F30398006077
sg83
F80957849738
sg84
F4265376562
sg85
F329820803.80000001
sg86
F62309482078
sg87
F8501362503
sg88
Nsg89
F1891347492
sg90
F4898765026
sg91
Nsg92
F28171372340
sg93
F4947044603
sg94
Nsg95
Nsg96
F30149771486
sg97
F7148800000000
sg98
F95371778679
sg99
Nsg100
F151655000000
sg101
F153718000000
sg102
F444438458.69999999
sg103
F8829838828
sg104
F2220874442
sg105
F2923771653
sg106
F74947199749
sg107
F127112000000
sg108
F59784951854
sg109
F9055030784
sg110
F11830241100
sg111
F3817341647
sg112
F68290421484
sg113
F4390832093
sg114
Nsg115
F675872000000
sg116
Nsg117
Nsg118
F11311099805
sg119
F18320942273
sg120
F10300854210
sg121
F656899198
sg122
Nsg123
F53212662590
sg124
Nsg125
Nsg126
F34298763912
sg127
F83568308556
sg128
F298931000000
sg129
F48199121437
sg130
F22961312018
sg131
Nsg132
F288214178.60000002
sg133
Nsg134
F81680200922
sg135
Nsg136
F152068000000
sg137
Nsg138
F7794292166
sg139
F945428518.10000002
sg140
Nsg141
F7755503775
sg142
F70780712070
sg143
F125979000000
sg144
F4698408950
sg145
F113564000000
sg146
F43190105563
sg147
F27443106837
sg148
F2362834664
sg149
F516136288.39999998
sg150
F168135000000
sg151
F6964593540
sg152
F514163006.30000001
sg153
F16936816024
sg154
Nsg155
F3193422381
sg156
F7185398112
sg157
Nsg158
F116592000000
sg159
F577107000000
sg160
F93145735056
sg161
Nsg162
F687950552.5
sg163
F3246787727
sg164
F585736535.39999998
sg165
F531923000000
sg166
F153294000000
sg167
F1666684881
sg168
F1356802428
sg169
F2300161151
sg170
F8356852158
sg171
F839901000000
sg172
Nsg173
Nsg174
F28448575258
sg175
F14305814865
sg176
F45316354166
sg177
F4306987662
sg178
F245819000000
sg179
F3343412767
sg180
F989728324.20000005
sg181
Nsg182
Nsg183
F187181000000
sg184
F71844855283
sg185
F314600000000
sg186
F4381530446
sg187
F7588931128
sg188
F8862160409
sg189
F3556141497
sg190
F2567183289
sg191
F6327401207
sg192
Nsg193
F1301540000000
sg194
F34031718767
sg195
F240435000000
sg196
Nsg197
Nsg198
Nsg199
F11134246603
sg200
Nsg201
F965302308.79999995
sg202
F10988685279
sg203
Nsg204
F524206174.89999998
sg205
F28212454875
sg206
F7621027393
sg207
F6864735954
sg208
F28964927412
sg209
F3940496620
sg210
F1045170000000
sg211
F1168094875
sg212
Nsg213
F139496000000
sg214
F12506947441
sg215
Nsg216
F372323948.19999999
ssI2002
(dp258
g3
F509487000000
sg4
Nsg5
Nsg6
F4905150050
sg7
F20161922071
sg8
F9211337244
sg9
F138027000000
sg10
F23939382692
sg11
Nsg12
F2595937176
sg13
F168387000000
sg14
F17051393380
sg15
F4836031487
sg16
F6706681125
sg17
F13654464902
sg18
F83974934332
sg19
F1736960000000
sg20
Nsg21
Nsg22
Nsg23
F20874068503
sg24
F34004931803
sg25
Nsg26
F20210476262
sg27
F551458000000
sg28
F10767290565
sg29
F667626631.79999995
sg30
F1610591753
sg31
F380691392.80000001
sg32
F1143329160
sg33
Nsg34
F178580000000
sg35
F9183094564
sg36
F16614240297
sg37
F7516966965
sg38
F3439808548
sg39
Nsg40
F50404908139
sg41
F10729707632
sg42
Nsg43
Nsg44
F38063787500
sg45
Nsg46
Nsg47
F17416775187
sg48
F1074130000000
sg49
F12598347871
sg50
F1999082259
sg51
F31017195589
sg52
F3596053676
sg53
F363083000000
sg54
Nsg55
Nsg56
F92301854018
sg57
F2519822966
sg58
F701847722.5
sg59
F468923000000
sg60
Nsg61
Nsg62
F952352000000
sg63
F27977697876
sg64
Nsg65
F4524297540
sg66
Nsg67
F86385544444
sg68
F399012562.60000002
sg69
Nsg70
F448174578.10000002
sg71
F69589156765
sg72
F16307746487
sg73
F6392159374
sg74
F5953714499
sg75
Nsg76
F17269655608
sg77
Nsg78
F3138449290
sg79
F1279430000000
sg80
F6388800658
sg81
Nsg82
F32846311945
sg83
F90404646890
sg84
F4487178535
sg85
F345951938
sg86
F65866680064
sg87
F14838274431
sg88
Nsg89
F1889571816
sg90
F5147004182
sg91
Nsg92
F31549001308
sg93
F6031083808
sg94
Nsg95
Nsg96
F32807974029
sg97
F7439100000000
sg98
F98547275548
sg99
Nsg100
F154954000000
sg101
F161923000000
sg102
F475044593.80000001
sg103
F9167772391
sg104
F2339881564
sg105
F3903505692
sg106
F79321471449
sg107
F131358000000
sg108
F65351426917
sg109
F8865289473
sg110
F12696471484
sg111
F4034970203
sg112
F76339955041
sg113
F4571898176
sg114
Nsg115
F698660000000
sg116
Nsg117
Nsg118
F12328132857
sg119
F18981918983
sg120
F11145671725
sg121
F671262483.39999998
sg122
Nsg123
F55642395142
sg124
Nsg125
Nsg126
F36014057273
sg127
F84811207424
sg128
F312331000000
sg129
F51944755089
sg130
F23545978972
sg131
Nsg132
F336372792.30000001
sg133
Nsg134
F84454937430
sg135
Nsg136
F157717000000
sg137
Nsg138
F7877133774
sg139
F1010289895
sg140
Nsg141
F8161997984
sg142
F74236421665
sg143
F134983000000
sg144
F5030344697
sg145
F115907000000
sg146
F44709130009
sg147
F30378010862
sg148
F2703868368
sg149
F457521281
sg150
F179940000000
sg151
F7944776917
sg152
F581066978.39999998
sg153
F17850158779
sg154
Nsg155
F5201800217
sg156
F8196144901
sg157
Nsg158
F121138000000
sg159
F597784000000
sg160
F93294793247
sg161
Nsg162
F650442922.89999998
sg163
F3516014262
sg164
F510896004.60000002
sg165
F568616000000
sg166
F158465000000
sg167
F1891643443
sg168
F1387273432
sg169
F2233085593
sg170
F8204339629
sg171
F842472000000
sg172
Nsg173
Nsg174
F28559372041
sg175
F15011286953
sg176
F48418434854
sg177
F4346305310
sg178
F256428000000
sg179
F3576908244
sg180
F1323806932
sg181
Nsg182
Nsg183
F214540000000
sg184
F74068517842
sg185
F338496000000
sg186
F4372991676
sg187
F7191293973
sg188
F9382930615
sg189
F4596948518
sg190
F3891770613
sg191
F7532877513
sg192
Nsg193
F1316860000000
sg194
F35776268775
sg195
F259690000000
sg196
Nsg197
Nsg198
F34247890807
sg199
F12230312404
sg200
Nsg201
F942408580.60000002
sg202
F11432501544
sg203
Nsg204
F593742600.39999998
sg205
F29656500122
sg206
F8119599003
sg207
F7208059756
sg208
F32801974045
sg209
F4319018874
sg210
F1087160000000
sg211
F1271987075
sg212
Nsg213
F154144000000
sg214
F12004912172
sg215
Nsg216
F400942328
ssI2003
(dp259
g3
F534006000000
sg4
Nsg5
Nsg6
F5248187739
sg7
F23196625524
sg8
F10225689503
sg9
F139444000000
sg10
F23928869846
sg11
Nsg12
F2597680083
sg13
F187775000000
sg14
F17729545514
sg15
F4892177969
sg16
F7495615887
sg17
F14704800483
sg18
F88521390386
sg19
F1808960000000
sg20
Nsg21
Nsg22
Nsg23
F21716174253
sg24
F35818388794
sg25
Nsg26
F21719043399
sg27
F607400000000
sg28
F11533584672
sg29
F771802366.5
sg30
F1353254243
sg31
F400248061.80000001
sg32
F369983538.80000001
sg33
Nsg34
F191910000000
sg35
F10514651503
sg36
F18132646033
sg37
F9020419756
sg38
F3246946113
sg39
Nsg40
F53082489885
sg41
F11562513139
sg42
Nsg43
Nsg44
F37986281859
sg45
Nsg46
Nsg47
F16652807971
sg48
F1156870000000
sg49
F13892339391
sg50
F1895249684
sg51
F30975095163
sg52
F4306294473
sg53
F383827000000
sg54
Nsg55
Nsg56
F97234144032
sg57
F3040242025
sg58
F517390391.80000001
sg59
F476866000000
sg60
Nsg61
Nsg62
F941866000000
sg63
F27799420700
sg64
Nsg65
F4860378979
sg66
Nsg67
F90665569311
sg68
F382951881.19999999
sg69
Nsg70
F442766409.19999999
sg71
F74753977423
sg72
F17406833437
sg73
F6741222538
sg74
F6016011861
sg75
Nsg76
F18695360013
sg77
Nsg78
F3161641851
sg79
F1405510000000
sg80
F6976428146
sg81
Nsg82
F35230256637
sg83
F102925000000
sg84
F4852089371
sg85
F356661539.80000001
sg86
F68135550283
sg87
F12696823606
sg88
Nsg89
F1786810045
sg90
F5614994897
sg91
Nsg92
F33757967326
sg93
F6658525745
sg94
Nsg95
Nsg96
F35884145090
sg97
F7804100000000
sg98
F105072000000
sg99
Nsg100
F165713000000
sg101
F170725000000
sg102
F525189475.80000001
sg103
F9534568053
sg104
F2779840117
sg105
F4248896381
sg106
F86932353820
sg107
F137272000000
sg108
F75463691809
sg109
F9365875938
sg110
F13641031125
sg111
F5144878036
sg112
F82578233452
sg113
F5060882109
sg114
Nsg115
F718951000000
sg116
Nsg117
Nsg118
F12766652650
sg119
F20116537160
sg120
F10817936781
sg121
F736967192
sg122
Nsg123
F59863039550
sg124
Nsg125
Nsg126
F39249875775
sg127
F91396162463
sg128
F324663000000
sg129
F54460032873
sg130
F25080123327
sg131
Nsg132
F362830116.10000002
sg133
Nsg134
F91689227118
sg135
Nsg136
F155659000000
sg137
Nsg138
F7462018282
sg139
F1051681947
sg140
Nsg141
F8504164521
sg142
F72998939627
sg143
F147102000000
sg144
F6149704738
sg145
F121133000000
sg146
F47924297424
sg147
F32418203890
sg148
F2821199131
sg149
Nsg150
F196153000000
sg151
F8499667360
sg152
F619615503.10000002
sg153
F18853493578
sg154
Nsg155
F3451024960
sg156
F9037649106
sg157
Nsg158
F126401000000
sg159
F675150000000
sg160
F94128772593
sg161
Nsg162
F669591863
sg163
F3965201637
sg164
F617902271
sg165
F586057000000
sg166
F164939000000
sg167
F1885399787
sg168
F1436164893
sg169
F2512265350
sg170
F9321726888
sg171
F877811000000
sg172
Nsg173
Nsg174
F30604686867
sg175
F15659806128
sg176
F49804807432
sg177
F4621872934
sg178
F253550000000
sg179
F3777332624
sg180
F1608030290
sg181
Nsg182
Nsg183
F228432000000
sg184
F73596435975
sg185
F361729000000
sg186
F4607474414
sg187
F6969068028
sg188
F9943647752
sg189
F3606713657
sg190
F4241097868
sg191
F7625520555
sg192
Nsg193
F1367240000000
sg194
F41895047324
sg195
F266050000000
sg196
Nsg197
Nsg198
F36996173145
sg199
F13136461972
sg200
Nsg201
F878684622.79999995
sg202
F12097463512
sg203
Nsg204
F656955917.60000002
sg205
F31830308766
sg206
F8522388778
sg207
F7661596547
sg208
F33519474433
sg209
F4509187652
sg210
F1141750000000
sg211
F1323090812
sg212
Nsg213
F155914000000
sg214
F12913649436
sg215
Nsg216
F444505634.5
ssI2004
(dp260
g3
F565843000000
sg4
Nsg5
Nsg6
F5923209551
sg7
F25457579153
sg8
F11873235919
sg9
F144630000000
sg10
F27862672776
sg11
Nsg12
F3067323652
sg13
F219734000000
sg14
F18747502111
sg15
F5128835750
sg16
F8775355731
sg17
F16000372505
sg18
F95870886048
sg19
F1885960000000
sg20
Nsg21
Nsg22
Nsg23
F22883401993
sg24
F37852794706
sg25
Nsg26
F23676160046
sg27
F697485000000
sg28
F13401023774
sg29
F732221469.5
sg30
F2316632150
sg31
F427745832.10000002
sg32
F1179488801
sg33
Nsg34
F213125000000
sg35
F12135903246
sg36
F19693677789
sg37
F12088470507
sg38
F3099286568
sg39
Nsg40
F57080087524
sg41
F12011819976
sg42
Nsg43
Nsg44
F41051541158
sg45
Nsg46
Nsg47
F17870986882
sg48
F1244420000000
sg49
F14837347926
sg50
F2586314613
sg51
F31417702350
sg52
F5036696837
sg53
F438056000000
sg54
F21359478101
sg55
Nsg56
F101334000000
sg57
F3191762792
sg58
F534982385.30000001
sg59
F490919000000
sg60
Nsg61
Nsg62
F984090000000
sg63
F34082524354
sg64
Nsg65
F5061733045
sg66
Nsg67
F96793099463
sg68
F409743191.19999999
sg69
Nsg70
F476077100.39999998
sg71
F80628572288
sg72
F18007326926
sg73
F7422675660
sg74
F6349084533
sg75
Nsg76
F19923565237
sg77
Nsg78
F3505020774
sg79
F1571560000000
sg80
F7791363748
sg81
Nsg82
F35080217301
sg83
F122346000000
sg84
F5131492322
sg85
F360486634.60000002
sg86
F72773650406
sg87
F17717997697
sg88
Nsg89
F1941960389
sg90
F6404057333
sg91
Nsg92
F37733469117
sg93
F7443421280
sg94
Nsg95
Nsg96
F38852079304
sg97
F8270600000000
sg98
F124670000000
sg99
Nsg100
F174431000000
sg101
F194898000000
sg102
F594943889
sg103
F10382320736
sg104
F3206194470
sg105
F7085779091
sg106
F98238184601
sg107
F143732000000
sg108
F82352202564
sg109
F9342583654
sg110
F16421489472
sg111
F5571236566
sg112
F84473337458
sg113
F5135966358
sg114
Nsg115
F763444000000
sg116
Nsg117
F5228864645
sg118
F14810288112
sg119
F21195817686
sg120
F11418473414
sg121
F707650141.79999995
sg122
Nsg123
F63749212258
sg124
Nsg125
Nsg126
F43433031357
sg127
F96660651259
sg128
F350640000000
sg129
F59684718372
sg130
F26583072050
sg131
Nsg132
F344131633.5
sg133
Nsg134
F100863000000
sg135
Nsg136
F162503000000
sg137
Nsg138
F8073026579
sg139
F1085417436
sg140
Nsg141
F9601165057
sg142
F78624998191
sg143
F162543000000
sg144
F6309189592
sg145
F126319000000
sg146
F51148806370
sg147
F34108816756
sg148
F3194657465
sg149
Nsg150
F214851000000
sg151
F9076609214
sg152
F595271845.89999998
sg153
F20165421985
sg154
Nsg155
F5242424268
sg156
F9991934192
sg157
Nsg158
F134034000000
sg159
F731679000000
sg160
F103562000000
sg161
Nsg162
F736196958.29999995
sg163
F4311297681
sg164
F675004538.89999998
sg165
F618146000000
sg166
F175818000000
sg167
F2135880274
sg168
F1483053874
sg169
F2875252495
sg170
F10446949949
sg171
F901480000000
sg172
Nsg173
Nsg174
F33030033087
sg175
F16369579446
sg176
F53098680374
sg177
F4772959172
sg178
F264068000000
sg179
F4218570713
sg180
F1752471402
sg181
Nsg182
Nsg183
F258743000000
sg184
F79618637087
sg185
F390559000000
sg186
F5101735508
sg187
F6847152090
sg188
F10818452501
sg189
F3799986119
sg190
F4906229284
sg191
F10177676986
sg192
Nsg193
F1414550000000
sg194
F50283985203
sg195
F286496000000
sg196
Nsg197
Nsg198
F39997907564
sg199
F14495659418
sg200
Nsg201
F904441717
sg202
F13006866342
sg203
Nsg204
F1179075137
sg205
F34299541751
sg206
F9104955231
sg207
F8478385602
sg208
F36237510170
sg209
F5283280342
sg210
F1221270000000
sg211
F1417730195
sg212
Nsg213
F164231000000
sg214
F14791776877
sg215
Nsg216
F463904267.19999999
ssI2005
(dp261
g3
F602357000000
sg4
Nsg5
F8724750733
sg6
F6323113863
sg7
F28248345749
sg8
F13715817791
sg9
F150396000000
sg10
F32803510047
sg11
Nsg12
F3256566394
sg13
F241221000000
sg14
F19869435457
sg15
F5761496545
sg16
F9001250349
sg17
F17593438761
sg18
F107824000000
sg19
F2000440000000
sg20
Nsg21
Nsg22
Nsg23
F23615973658
sg24
F40135997567
sg25
Nsg26
F27199081997
sg27
F805946000000
sg28
F15860470383
sg29
F773753247.79999995
sg30
F2481392627
sg31
F443525750.19999999
sg32
F1354893084
sg33
Nsg34
F241480000000
sg35
F12720905949
sg36
F21933645871
sg37
F13514107755
sg38
F3431814751
sg39
Nsg40
F59741570935
sg41
F12399111195
sg42
Nsg43
Nsg44
F45993724630
sg45
F143390000000
sg46
Nsg47
F19275402146
sg48
F1384180000000
sg49
F14864965929
sg50
F2784785999
sg51
F32659903223
sg52
F6207216147
sg53
F478843000000
sg54
F21289550552
sg55
F113627000000
sg56
F108254000000
sg57
F3335817217
sg58
F588651749.5
sg59
F529280000000
sg60
Nsg61
Nsg62
F1040430000000
sg63
F40286506052
sg64
Nsg65
F5279472844
sg66
Nsg67
F104660000000
sg68
F450858642.39999998
sg69
Nsg70
F620010407.5
sg71
F85302938581
sg72
F19570823588
sg73
F8109514535
sg74
F6359997959
sg75
Nsg76
F21385965621
sg77
F2631485644
sg78
F3547512872
sg79
F1777710000000
sg80
F8615596550
sg81
Nsg82
F41140111237
sg83
F143121000000
sg84
F5822072815
sg85
F392333966.30000001
sg86
F75546364593
sg87
F17827531318
sg88
Nsg89
F2004992675
sg90
F7184682129
sg91
Nsg92
F44531273713
sg93
F7601180840
sg94
Nsg95
Nsg96
F42869490760
sg97
F8803500000000
sg98
F130451000000
sg99
F13516899450
sg100
F190517000000
sg101
F216721000000
sg102
F621821625
sg103
F11248307377
sg104
F3300962187
sg105
F8447227504
sg106
F110788000000
sg107
F151552000000
sg108
F90059211164
sg109
F10853267424
sg110
F15872094853
sg111
F6619096980
sg112
F88666683734
sg113
F5321493920
sg114
Nsg115
F823659000000
sg116
Nsg117
F5408344236
sg118
F15698179870
sg119
F23022555336
sg120
F11089616192
sg121
F707918008.20000005
sg122
Nsg123
F70497683738
sg124
Nsg125
Nsg126
F49016850795
sg127
F102263000000
sg128
F367070000000
sg129
F64972544776
sg130
F28856612242
sg131
Nsg132
F382639696.69999999
sg133
Nsg134
F119759000000
sg135
Nsg136
F168745000000
sg137
Nsg138
F8360734458
sg139
F1093706586
sg140
F2108105278
sg141
F9916813330
sg142
F82030129641
sg143
F176149000000
sg144
F7187271530
sg145
F135166000000
sg146
F55013414576
sg147
F35868821667
sg148
F3211723814
sg149
Nsg150
F232482000000
sg151
F9899444339
sg152
F766697004.70000005
sg153
F22605768048
sg154
Nsg155
F5104987295
sg156
F11054753601
sg157
Nsg158
F139211000000
sg159
F803062000000
sg160
F111240000000
sg161
F19765967851
sg162
F750761228
sg163
F4855417860
sg164
F861407669.79999995
sg165
F663637000000
sg166
F187167000000
sg167
F2515416465
sg168
F2402636361
sg169
F2724277758
sg170
F11500058657
sg171
F932217000000
sg172
Nsg173
Nsg174
F36522102383
sg175
F17362329271
sg176
F57098164132
sg177
F4969344493
sg178
F275405000000
sg179
F4572000252
sg180
F1777295640
sg181
Nsg182
Nsg183
F281971000000
sg184
F82338904646
sg185
F425869000000
sg186
F5852400667
sg187
F8040061975
sg188
F11666445574
sg189
F5170751503
sg190
F5223634452
sg191
F7081768313
sg192
Nsg193
F1457200000000
sg194
F57212321493
sg195
F292166000000
sg196
F2238884211
sg197
Nsg198
F42277377096
sg199
F16442398099
sg200
Nsg201
F1150743205
sg202
F14326200436
sg203
Nsg204
F1350493518
sg205
F37164852822
sg206
F9893988410
sg207
F9097426768
sg208
F39320432187
sg209
F5660187640
sg210
F1250440000000
sg211
F1531967454
sg212
Nsg213
F175777000000
sg214
F16011784184
sg215
F25076704174
sg216
F530360892.19999999
ssI2006
(dp262
g3
F621341000000
sg4
Nsg5
Nsg6
F6354044701
sg7
F31408606889
sg8
F14876222043
sg9
F157351000000
sg10
F37060496467
sg11
Nsg12
F3973968621
sg13
F265836000000
sg14
F22175764057
sg15
F6216524515
sg16
F10313535432
sg17
F32125815090
sg18
F123496000000
sg19
F2099020000000
sg20
Nsg21
Nsg22
Nsg23
F28241428009
sg24
F42979938369
sg25
Nsg26
F30239212847
sg27
F963587000000
sg28
F17887725028
sg29
F1053787579
sg30
F2756077324
sg31
F455527376.30000001
sg32
F2057436100
sg33
Nsg34
F264165000000
sg35
F14950398872
sg36
F24328975698
sg37
F14750213104
sg38
F4192511338
sg39
Nsg40
F63160923473
sg41
F13409717322
sg42
Nsg43
Nsg44
F51069245377
sg45
Nsg46
Nsg47
F21095925838
sg48
F1551280000000
sg49
F17596375290
sg50
F2966885936
sg51
F33738822790
sg52
F7972703154
sg53
F517672000000
sg54
F23109431548
sg55
Nsg56
F117006000000
sg57
F3725315338
sg58
F612382122.79999995
sg59
F566709000000
sg60
Nsg61
Nsg62
F1093390000000
sg63
F42727778917
sg64
Nsg65
F5886765122
sg66
Nsg67
F114236000000
sg68
F488936787.10000002
sg69
Nsg70
F641569936.70000005
sg71
F92268279517
sg72
F20140925014
sg73
Nsg74
Nsg75
Nsg76
F22391609621
sg77
F3433450844
sg78
F3664293074
sg79
F2043870000000
sg80
F9800173791
sg81
Nsg82
F46131754556
sg83
F179743000000
sg84
F6707706137
sg85
F421320334.89999998
sg86
F81312612492
sg87
F20778956630
sg88
Nsg89
F2127377206
sg90
F7778230516
sg91
Nsg92
F51804303615
sg93
F7260384101
sg94
Nsg95
Nsg96
F46310108070
sg97
F9301000000000
sg98
F136886000000
sg99
F11014460703
sg100
F206784000000
sg101
F240878000000
sg102
F699736220.79999995
sg103
F12174791650
sg104
F3447037986
sg105
F10106768703
sg106
F121710000000
sg107
F160124000000
sg108
F100217000000
sg109
F11379815079
sg110
F18264936576
sg111
F8178460079
sg112
F92441355850
sg113
Nsg114
Nsg115
F887788000000
sg116
Nsg117
F6097872969
sg118
F17275029247
sg119
F25309263961
sg120
F11871183633
sg121
F778410521.29999995
sg122
Nsg123
F77176227963
sg124
Nsg125
Nsg126
F53765747317
sg127
F109033000000
sg128
F377154000000
sg129
F70025583464
sg130
F31401580265
sg131
Nsg132
F479122309.30000001
sg133
Nsg134
F132817000000
sg135
Nsg136
F176638000000
sg137
Nsg138
F8651800399
sg139
F1081884728
sg140
Nsg141
F13084270504
sg142
F88662286402
sg143
F189328000000
sg144
F7842542971
sg145
F143463000000
sg146
F60209493797
sg147
F36992791917
sg148
F3581416080
sg149
Nsg150
F247345000000
sg151
F10900096958
sg152
F824182963.70000005
sg153
F26690804396
sg154
Nsg155
F5459753108
sg156
F14278845117
sg157
Nsg158
F147432000000
sg159
F864882000000
sg160
F120651000000
sg161
Nsg162
F757924088.39999998
sg163
F5504131683
sg164
F1118706883
sg165
F715777000000
sg166
F207990000000
sg167
F2688859018
sg168
F2762311863
sg169
F2527723434
sg170
F11936392183
sg171
F984145000000
sg172
Nsg173
Nsg174
F42206153798
sg175
F19139606640
sg176
F62529243905
sg177
F5130229412
sg178
F285032000000
sg179
F4942746508
sg180
Nsg181
Nsg182
Nsg183
F314051000000
sg184
F85920094184
sg185
F455492000000
sg186
F6230561673
sg187
F7637879359
sg188
F13210469568
sg189
F5309417458
sg190
F5679879202
sg191
F11636926916
sg192
Nsg193
F1518780000000
sg194
F67620841937
sg195
F316726000000
sg196
Nsg197
Nsg198
F46593658510
sg199
F20027248106
sg200
Nsg201
F2184019725
sg202
F16214851323
sg203
Nsg204
F1287380226
sg205
F40081153142
sg206
F10699306983
sg207
F10232959151
sg208
F42893715347
sg209
F6077531118
sg210
F1314170000000
sg211
F1489047919
sg212
Nsg213
F189912000000
sg214
F17048292666
sg215
Nsg216
F550569522
ssI2007
(dp263
g3
F667367000000
sg4
Nsg5
Nsg6
F7309856192
sg7
F35869902561
sg8
F15750012130
sg9
F168243000000
sg10
F41953903820
sg11
Nsg12
F4031306927
sg13
F309485000000
sg14
F23726030312
sg15
F6396969828
sg16
Nsg17
F36588926858
sg18
F144721000000
sg19
F2190340000000
sg20
Nsg21
Nsg22
Nsg23
F26755738443
sg24
F46610921261
sg25
Nsg26
F34734348421
sg27
F1129910000000
sg28
F20219856229
sg29
F1302892504
sg30
F3765582182
sg31
F527250353.19999999
sg32
F2043332917
sg33
Nsg34
F288901000000
sg35
F17918165458
sg36
F27283637115
sg37
F15382043495
sg38
F4594484140
sg39
Nsg40
F67127539311
sg41
F14962881853
sg42
Nsg43
Nsg44
F56686322857
sg45
Nsg46
Nsg47
F23194520220
sg48
F1717990000000
sg49
F22251697114
sg50
F3208166467
sg51
F35777869086
sg52
F10716705304
sg53
F559189000000
sg54
F31080534627
sg55
Nsg56
F125204000000
sg57
F4293808146
sg58
Nsg59
F611469000000
sg60
Nsg61
Nsg62
F1148790000000
sg63
F44914606851
sg64
Nsg65
F6663720584
sg66
Nsg67
F127626000000
sg68
F529827391.39999998
sg69
Nsg70
F1314004415
sg71
F100594000000
sg72
F20386962132
sg73
Nsg74
Nsg75
Nsg76
F24163462520
sg77
F4958451642
sg78
F4053456114
sg79
F2336970000000
sg80
F11346234355
sg81
Nsg82
F51455068888
sg83
F216394000000
sg84
F7349198048
sg85
F455253531.60000002
sg86
F88337531424
sg87
F25589479298
sg88
Nsg89
F2523289663
sg90
F8567323847
sg91
Nsg92
F60632679915
sg93
F8345851414
sg94
Nsg95
Nsg96
F54296104243
sg97
F9772200000000
sg98
F153744000000
sg99
F22390352023
sg100
F240542000000
sg101
F262066000000
sg102
F851862005.5
sg103
F13996354588
sg104
F3619927864
sg105
F12092989117
sg106
F139207000000
sg107
F164612000000
sg108
F114207000000
sg109
F12679348742
sg110
F20758008106
sg111
F8718808566
sg112
F95516907821
sg113
Nsg114
Nsg115
F976915000000
sg116
Nsg117
F6288736281
sg118
F18526092501
sg119
F28331280315
sg120
F12172890441
sg121
F822741757.79999995
sg122
Nsg123
F85092512422
sg124
Nsg125
Nsg126
F59039505062
sg127
F117470000000
sg128
F404469000000
sg129
F76186018129
sg130
F34537310840
sg131
Nsg132
F511500724.30000001
sg133
Nsg134
F146846000000
sg135
Nsg136
F185452000000
sg137
Nsg138
Nsg139
F1158776071
sg140
Nsg141
F13633615917
sg142
F93399923453
sg143
F204875000000
sg144
F8535414180
sg145
F150349000000
sg146
F65648514567
sg147
F40893677202
sg148
F4271909582
sg149
Nsg150
F258745000000
sg151
F11956897328
sg152
F871114113.20000005
sg153
F31306638958
sg154
Nsg155
F7657581661
sg156
F13812969514
sg157
Nsg158
F159015000000
sg159
F923648000000
sg160
F136995000000
sg161
Nsg162
F762746937.70000005
sg163
F6177043622
sg164
F1227398106
sg165
F758042000000
sg166
F226887000000
sg167
F2713188825
sg168
F2707846887
sg169
F2240278513
sg170
F12621483383
sg171
F1035220000000
sg172
Nsg173
Nsg174
F43028842534
sg175
F20280125583
sg176
F69971864693
sg177
F5226469458
sg178
F301517000000
sg179
F5593381803
sg180
Nsg181
Nsg182
Nsg183
F356269000000
sg184
F93786888051
sg185
F528187000000
sg186
F6707414267
sg187
F8866277549
sg188
F14550825451
sg189
F6396244386
sg190
F5249219039
sg191
F12935054778
sg192
Nsg193
F1553650000000
sg194
F78742075616
sg195
F354949000000
sg196
Nsg197
Nsg198
F49998955343
sg199
F22999545589
sg200
Nsg201
F2625539294
sg202
F17682381612
sg203
Nsg204
F1479937524
sg205
F43343151108
sg206
F11379286428
sg207
F9639317099
sg208
F44809573304
sg209
F6852998408
sg210
F1338990000000
sg211
F1710606652
sg212
Nsg213
F202134000000
sg214
F19197708378
sg215
Nsg216
F591181413.20000005
ssI2008
(dp264
g3
F684089000000
sg4
Nsg5
Nsg6
F8246127695
sg7
F38779245481
sg8
F15929987281
sg9
F182107000000
sg10
F45032546257
sg11
Nsg12
F4885461171
sg13
F370055000000
sg14
F24920350125
sg15
F6389409205
sg16
Nsg17
F44282601720
sg18
F161365000000
sg19
F2259370000000
sg20
Nsg21
Nsg22
Nsg23
F28810545164
sg24
F50162316996
sg25
Nsg26
F36661117682
sg27
F1339160000000
sg28
F21554741915
sg29
F1283054362
sg30
F5524297532
sg31
F607242336.60000002
sg32
F2280058876
sg33
Nsg34
F298605000000
sg35
F22603356576
sg36
F29714253921
sg37
F16907472104
sg38
F4876626256
sg39
Nsg40
F69156538215
sg41
F15945318953
sg42
Nsg43
Nsg44
F63500797176
sg45
Nsg46
Nsg47
F25615104368
sg48
F1881850000000
sg49
F25001692560
sg50
F3492171205
sg51
F33684260431
sg52
F13354163060
sg53
F614543000000
sg54
F26598595162
sg55
Nsg56
F138448000000
sg57
F4461380612
sg58
Nsg59
F619816000000
sg60
Nsg61
Nsg62
F1195280000000
sg63
F47010105381
sg64
Nsg65
F7766328667
sg66
Nsg67
F144097000000
sg68
Nsg69
Nsg70
F1262834763
sg71
F104403000000
sg72
F21197714575
sg73
Nsg74
Nsg75
Nsg76
Nsg77
F5614909016
sg78
F4431840499
sg79
F2651530000000
sg80
F12240338699
sg81
Nsg82
F59212721931
sg83
F178085000000
sg84
F8020289609
sg85
F441667451.5
sg86
F95215138665
sg87
F25986889259
sg88
Nsg89
F2559930664
sg90
F9601128532
sg91
Nsg92
F73440983033
sg93
Nsg94
Nsg95
Nsg96
F57324930635
sg97
F10035500000000
sg98
F150613000000
sg99
F28699023149
sg100
F253555000000
sg101
F273488000000
sg102
F844070826.10000002
sg103
F16285203911
sg104
F3569350067
sg105
F14702018508
sg106
F156822000000
sg107
F170889000000
sg108
F130187000000
sg109
F14527882488
sg110
F20891231397
sg111
F10188493317
sg112
F99151563546
sg113
Nsg114
Nsg115
F1098880000000
sg116
Nsg117
F6402359035
sg118
F18930026434
sg119
F34140784653
sg120
F13108547417
sg121
F863523300
sg122
Nsg123
F85482072704
sg124
Nsg125
Nsg126
F68047040608
sg127
F117619000000
sg128
F428691000000
sg129
F78458589250
sg130
F36425729124
sg131
Nsg132
F612170199.60000002
sg133
Nsg134
F157112000000
sg135
Nsg136
F196320000000
sg137
Nsg138
Nsg139
F1166850914
sg140
Nsg141
F15620185772
sg142
F97076332996
sg143
F222704000000
sg144
F9237668242
sg145
F157471000000
sg146
F73283895036
sg147
F44481749296
sg148
F5362035008
sg149
Nsg150
F279782000000
sg151
F13957197286
sg152
F941227738.10000002
sg153
F35050195892
sg154
Nsg155
F6993609952
sg156
F13918914897
sg157
Nsg158
F166883000000
sg159
F963964000000
sg160
F143571000000
sg161
Nsg162
Nsg163
F6857523740
sg164
F1519314978
sg165
F787461000000
sg166
F239772000000
sg167
F2968798742
sg168
F2837489532
sg169
F2308865771
sg170
F13860407852
sg171
F1094970000000
sg172
Nsg173
Nsg174
F49686173956
sg175
F21099423290
sg176
F66365768489
sg177
F5713462907
sg178
F312678000000
sg179
F6214299441
sg180
Nsg181
Nsg182
Nsg183
Nsg184
F97040720538
sg185
F597026000000
sg186
F6383962637
sg187
F9307527648
sg188
F16746152448
sg189
F7396219734
sg190
F6481418104
sg191
F12530631891
sg192
Nsg193
F1613100000000
sg194
F84169498887
sg195
F388528000000
sg196
Nsg197
Nsg198
F54383862531
sg199
F23245849411
sg200
Nsg201
F2961434243
sg202
F19024849249
sg203
Nsg204
F4414884998
sg205
F47139863125
sg206
F2703832419
sg207
F10762946168
sg208
F51570017157
sg209
F7855803330
sg210
F1341420000000
sg211
F2001975968
sg212
Nsg213
F221955000000
sg214
F22635965762
sg215
Nsg216
F640363713.10000002
ssI2009
(dp265
g3
F688089000000
sg4
Nsg5
Nsg6
F8273955574
sg7
F33567933687
sg8
F15715745584
sg9
F184364000000
sg10
F55438017133
sg11
Nsg12
F5053558378
sg13
F389135000000
sg14
F25509229955
sg15
F5744231183
sg16
Nsg17
F40770595906
sg18
F167751000000
sg19
F2228290000000
sg20
Nsg21
Nsg22
Nsg23
F28518434418
sg24
F53860546596
sg25
Nsg26
F32138736055
sg27
F1272580000000
sg28
F22122357084
sg29
F1012083193
sg30
F4828222312
sg31
F563285770
sg32
F2022506660
sg33
Nsg34
F304513000000
sg35
F21996233824
sg36
F29637678426
sg37
F18090624589
sg38
F5048732564
sg39
Nsg40
F68947464726
sg41
F14119420412
sg42
Nsg43
Nsg44
F64475979063
sg45
Nsg46
Nsg47
F24640303317
sg48
F1924890000000
sg49
F26145025307
sg50
F3557404581
sg51
F35908570807
sg52
F12017950144
sg53
F613847000000
sg54
F29410595189
sg55
Nsg56
F147871000000
sg57
F3881257271
sg58
Nsg59
F620320000000
sg60
Nsg61
Nsg62
F1207840000000
sg63
F49363124284
sg64
Nsg65
F8302954733
sg66
Nsg67
F146928000000
sg68
Nsg69
Nsg70
F1098970398
sg71
F106352000000
sg72
F24142673207
sg73
Nsg74
Nsg75
Nsg76
Nsg77
F5054540232
sg78
F4384727833
sg79
F2914280000000
sg80
F11651271666
sg81
Nsg82
F60215123314
sg83
F211897000000
sg84
F7757563407
sg85
F439799451.60000002
sg86
F93463569614
sg87
Nsg88
Nsg89
F2606073974
sg90
F9705417004
sg91
Nsg92
F73176028958
sg93
Nsg94
Nsg95
Nsg96
F53273006994
sg97
F9866100000000
sg98
F157970000000
sg99
F38921299985
sg100
F276852000000
sg101
F264409000000
sg102
F830757705.89999998
sg103
F15861745469
sg104
F3710454753
sg105
F16195380932
sg106
F157296000000
sg107
F171645000000
sg108
F133440000000
sg109
F15039152924
sg110
F23158728483
sg111
F8599250861
sg112
F97358284081
sg113
Nsg114
Nsg115
F1156670000000
sg116
Nsg117
F10356829028
sg118
F16790535280
sg119
F36749323089
sg120
F13353125282
sg121
F1016133472
sg122
Nsg123
F79960182312
sg124
Nsg125
Nsg126
F68907622935
sg127
F120492000000
sg128
F429336000000
sg129
F74232659201
sg130
F32155316361
sg131
Nsg132
F592030925.70000005
sg133
Nsg134
F155246000000
sg135
Nsg136
F198175000000
sg137
Nsg138
Nsg139
Nsg140
Nsg141
F15318700695
sg142
F94297654805
sg143
F222537000000
sg144
F8341456525
sg145
F152460000000
sg146
F75566427790
sg147
F41498574349
sg148
F5258643885
sg149
Nsg150
F280834000000
sg151
F13991607676
sg152
F812293332.39999998
sg153
F34146545367
sg154
Nsg155
F7125585989
sg156
F11999279345
sg157
Nsg158
F164172000000
sg159
F894909000000
sg160
F140788000000
sg161
Nsg162
Nsg163
F7437832831
sg164
F1373535926
sg165
F755449000000
sg166
F240972000000
sg167
F2947872429
sg168
Nsg169
F2182321906
sg170
F13635275128
sg171
F1083600000000
sg172
Nsg173
Nsg174
F53266145882
sg175
F22706914835
sg176
F65825157162
sg177
F5919400100
sg178
F301075000000
sg179
F6381608479
sg180
Nsg181
Nsg182
Nsg183
Nsg184
F98639526587
sg185
F622617000000
sg186
F5441686935
sg187
F9996117490
sg188
F16105244715
sg189
F8260545694
sg190
F6226777017
sg191
Nsg192
Nsg193
F1620490000000
sg194
F90065602842
sg195
F403613000000
sg196
Nsg197
Nsg198
F52900683846
sg199
F18588705337
sg200
Nsg201
F2668070712
sg202
F18499841918
sg203
Nsg204
F4525480151
sg205
F48912082790
sg206
F3487562141
sg207
Nsg208
F47659547743
sg209
F8252668208
sg210
F1287040000000
sg211
F2078598743
sg212
Nsg213
F219374000000
sg214
F21186440900
sg215
Nsg216
F653273165.29999995
ssI2010
(dp266
g3
F723777000000
sg4
Nsg5
Nsg6
F9526900375
sg7
F33178183439
sg8
F17914376160
sg9
F191797000000
sg10
F65964684600
sg11
Nsg12
F4253042564
sg13
F442314000000
sg14
F27249362766
sg15
F5968126613
sg16
Nsg17
F47353834819
sg18
F178042000000
sg19
F2313480000000
sg20
Nsg21
Nsg22
Nsg23
F28708292117
sg24
F57814680526
sg25
Nsg26
F33402082678
sg27
F1339850000000
sg28
F24271688458
sg29
F1054557219
sg30
F5260467644
sg31
F560902840.89999998
sg32
F2185770008
sg33
Nsg34
F336493000000
sg35
Nsg36
F32052218868
sg37
F18627942996
sg38
F5505369514
sg39
Nsg40
F71392460143
sg41
F14363202833
sg42
Nsg43
Nsg44
F65623805362
sg45
Nsg46
Nsg47
F27538203386
sg48
F2043890000000
sg49
F25840433566
sg50
F3803966365
sg51
F37655641432
sg52
F13088755644
sg53
F677319000000
sg54
F34564476889
sg55
Nsg56
F156736000000
sg57
F4744647696
sg58
Nsg59
F657418000000
sg60
Nsg61
Nsg62
F1242880000000
sg63
F58244197440
sg64
Nsg65
F5744574832
sg66
Nsg67
F158277000000
sg68
Nsg69
Nsg70
Nsg71
F112013000000
sg72
F25655560327
sg73
Nsg74
Nsg75
Nsg76
Nsg77
F5267860799
sg78
F4734635012
sg79
F3331640000000
sg80
F12282616640
sg81
Nsg82
F66938549748
sg83
F231826000000
sg84
Nsg85
F428682258.39999998
sg86
F97630044354
sg87
Nsg88
Nsg89
Nsg90
F10112671287
sg91
Nsg92
F82173785283
sg93
Nsg94
Nsg95
Nsg96
F53184234782
sg97
F10245600000000
sg98
F190179000000
sg99
F32482284994
sg100
F287532000000
sg101
F275581000000
sg102
Nsg103
F16396337427
sg104
F3862249591
sg105
Nsg106
F170432000000
sg107
F180056000000
sg108
F148923000000
sg109
F15151212611
sg110
F26465196267
sg111
F9145762979
sg112
F97587205546
sg113
Nsg114
Nsg115
F1271250000000
sg116
Nsg117
F10109971281
sg118
F26592027475
sg119
F39033028705
sg120
F13723382863
sg121
F1053324127
sg122
Nsg123
F81454520164
sg124
Nsg125
Nsg126
F70007739715
sg127
F122366000000
sg128
F441860000000
sg129
Nsg130
F34168966801
sg131
Nsg132
Nsg133
Nsg134
F173877000000
sg135
Nsg136
F206321000000
sg137
Nsg138
Nsg139
Nsg140
Nsg141
F15635856887
sg142
F98391982690
sg143
F234038000000
sg144
F9898804158
sg145
F158386000000
sg146
F79554211691
sg147
F41206107260
sg148
F5751674513
sg149
Nsg150
F300438000000
sg151
F14335603372
sg152
Nsg153
F41502134634
sg154
Nsg155
F8018174928
sg156
F12206897215
sg157
Nsg158
F169397000000
sg159
F946597000000
sg160
F149835000000
sg161
Nsg162
Nsg163
F8322859187
sg164
Nsg165
F784372000000
sg166
F257679000000
sg167
F3084168120
sg168
Nsg169
Nsg170
Nsg171
F1113260000000
sg172
Nsg173
Nsg174
F48887738183
sg175
F24901675382
sg176
F79714918777
sg177
F5980219344
sg178
F304123000000
sg179
F7100305923
sg180
Nsg181
Nsg182
Nsg183
Nsg184
F105696000000
sg185
F666163000000
sg186
F5440085172
sg187
F10148429379
sg188
F16758441491
sg189
F8179834416
sg190
F6354216649
sg191
Nsg192
Nsg193
F1672080000000
sg194
F103912000000
sg195
F430707000000
sg196
Nsg197
Nsg198
F59856016045
sg199
F19208373437
sg200
Nsg201
F3068681645
sg202
F19268101871
sg203
Nsg204
Nsg205
F51991879110
sg206
F4089099834
sg207
Nsg208
F49671037964
sg209
F9072375946
sg210
F1343040000000
sg211
F2264925185
sg212
Nsg213
F218244000000
sg214
F22439325800
sg215
Nsg216
NssI2011
(dp267
g3
Nsg4
Nsg5
Nsg6
F10359724861
sg7
F36551347769
sg8
Nsg9
Nsg10
F58687906938
sg11
Nsg12
F4860174828
sg13
F523841000000
sg14
F30694887616
sg15
F6116123061
sg16
Nsg17
F55540175268
sg18
F190405000000
sg19
Nsg20
Nsg21
Nsg22
Nsg23
F29672032771
sg24
F61057647150
sg25
Nsg26
F35275362067
sg27
F1445990000000
sg28
F29059847552
sg29
Nsg30
F5672632868
sg31
Nsg32
F2478464471
sg33
Nsg34
Nsg35
Nsg36
F34066622335
sg37
F19431337056
sg38
F6103670647
sg39
Nsg40
Nsg41
F14694946602
sg42
Nsg43
Nsg44
F67139677022
sg45
Nsg46
Nsg47
F30063069837
sg48
F2215070000000
sg49
Nsg50
F3991347436
sg51
F41260201429
sg52
F14256396514
sg53
F833043000000
sg54
Nsg55
Nsg56
F166539000000
sg57
F5194119649
sg58
Nsg59
Nsg60
Nsg61
Nsg62
Nsg63
F62625260400
sg64
Nsg65
F6114694769
sg66
Nsg67
F179967000000
sg68
Nsg69
Nsg70
Nsg71
Nsg72
F27371461597
sg73
Nsg74
Nsg75
Nsg76
Nsg77
F5767369133
sg78
F5058001915
sg79
F3771240000000
sg80
F13546219879
sg81
Nsg82
F73678055710
sg83
Nsg84
Nsg85
Nsg86
Nsg87
Nsg88
Nsg89
Nsg90
F11078777590
sg91
Nsg92
Nsg93
Nsg94
Nsg95
Nsg96
F55641300144
sg97
Nsg98
F199724000000
sg99
F36802537010
sg100
F294601000000
sg101
F298572000000
sg102
Nsg103
Nsg104
Nsg105
Nsg106
Nsg107
Nsg108
F157176000000
sg109
F15595492157
sg110
F25397949867
sg111
F10239214349
sg112
F122081000000
sg113
Nsg114
Nsg115
F1366970000000
sg116
Nsg117
Nsg118
Nsg119
F42568987005
sg120
Nsg121
F1250000538
sg122
Nsg123
Nsg124
Nsg125
Nsg126
F70943104957
sg127
Nsg128
F465853000000
sg129
Nsg130
F36349145568
sg131
Nsg132
Nsg133
Nsg134
F193802000000
sg135
Nsg136
Nsg137
Nsg138
Nsg139
Nsg140
Nsg141
F19580781368
sg142
Nsg143
F260907000000
sg144
F9810691501
sg145
Nsg146
F95027850519
sg147
F43214636742
sg148
F6607141822
sg149
Nsg150
F320076000000
sg151
F14475835591
sg152
Nsg153
Nsg154
Nsg155
Nsg156
Nsg157
Nsg158
Nsg159
F979143000000
sg160
Nsg161
Nsg162
Nsg163
Nsg164
Nsg165
Nsg166
F294420000000
sg167
F3531037624
sg168
Nsg169
Nsg170
Nsg171
Nsg172
Nsg173
Nsg174
Nsg175
F28042901245
sg176
F84472510664
sg177
F6168426051
sg178
Nsg179
F8161932984
sg180
Nsg181
Nsg182
Nsg183
Nsg184
F112418000000
sg185
F826132000000
sg186
Nsg187
F12501015037
sg188
F17776102253
sg189
F8167443701
sg190
F7350478843
sg191
Nsg192
Nsg193
F1747170000000
sg194
F128157000000
sg195
Nsg196
Nsg197
Nsg198
Nsg199
F20568321596
sg200
Nsg201
Nsg202
F21644607545
sg203
Nsg204
Nsg205
F55876283406
sg206
F4667568780
sg207
Nsg208
F6962965630
sg209
F10900324477
sg210
Nsg211
F2583358667
sg212
Nsg213
Nsg214
F25529365294
sg215
Nsg216
Nss.